ARM GAS  C:\Users\billa\AppData\Local\Temp\ccRGzkBf.s 			page 1


   1              		.cpu cortex-m7
   2              		.arch armv7e-m
   3              		.fpu fpv5-sp-d16
   4              		.eabi_attribute 27, 1
   5              		.eabi_attribute 28, 1
   6              		.eabi_attribute 20, 1
   7              		.eabi_attribute 21, 1
   8              		.eabi_attribute 23, 3
   9              		.eabi_attribute 24, 1
  10              		.eabi_attribute 25, 1
  11              		.eabi_attribute 26, 1
  12              		.eabi_attribute 30, 1
  13              		.eabi_attribute 34, 1
  14              		.eabi_attribute 18, 4
  15              		.file	"gpio.c"
  16              		.text
  17              	.Ltext0:
  18              		.cfi_sections	.debug_frame
  19              		.file 1 "Core/Src/gpio.c"
  20              		.section	.text.MX_GPIO_Init,"ax",%progbits
  21              		.align	1
  22              		.global	MX_GPIO_Init
  23              		.syntax unified
  24              		.thumb
  25              		.thumb_func
  27              	MX_GPIO_Init:
  28              	.LFB141:
   1:Core/Src/gpio.c **** /* USER CODE BEGIN Header */
   2:Core/Src/gpio.c **** /**
   3:Core/Src/gpio.c ****   ******************************************************************************
   4:Core/Src/gpio.c ****   * @file    gpio.c
   5:Core/Src/gpio.c ****   * @brief   This file provides code for the configuration
   6:Core/Src/gpio.c ****   *          of all used GPIO pins.
   7:Core/Src/gpio.c ****   ******************************************************************************
   8:Core/Src/gpio.c ****   * @attention
   9:Core/Src/gpio.c ****   *
  10:Core/Src/gpio.c ****   * Copyright (c) 2022 STMicroelectronics.
  11:Core/Src/gpio.c ****   * All rights reserved.
  12:Core/Src/gpio.c ****   *
  13:Core/Src/gpio.c ****   * This software is licensed under terms that can be found in the LICENSE file
  14:Core/Src/gpio.c ****   * in the root directory of this software component.
  15:Core/Src/gpio.c ****   * If no LICENSE file comes with this software, it is provided AS-IS.
  16:Core/Src/gpio.c ****   *
  17:Core/Src/gpio.c ****   ******************************************************************************
  18:Core/Src/gpio.c ****   */
  19:Core/Src/gpio.c **** /* USER CODE END Header */
  20:Core/Src/gpio.c **** 
  21:Core/Src/gpio.c **** /* Includes ------------------------------------------------------------------*/
  22:Core/Src/gpio.c **** #include "gpio.h"
  23:Core/Src/gpio.c **** 
  24:Core/Src/gpio.c **** /* USER CODE BEGIN 0 */
  25:Core/Src/gpio.c **** 
  26:Core/Src/gpio.c **** /* USER CODE END 0 */
  27:Core/Src/gpio.c **** 
  28:Core/Src/gpio.c **** /*----------------------------------------------------------------------------*/
  29:Core/Src/gpio.c **** /* Configure GPIO                                                             */
  30:Core/Src/gpio.c **** /*----------------------------------------------------------------------------*/
ARM GAS  C:\Users\billa\AppData\Local\Temp\ccRGzkBf.s 			page 2


  31:Core/Src/gpio.c **** /* USER CODE BEGIN 1 */
  32:Core/Src/gpio.c **** 
  33:Core/Src/gpio.c **** /* USER CODE END 1 */
  34:Core/Src/gpio.c **** 
  35:Core/Src/gpio.c **** /** Configure pins
  36:Core/Src/gpio.c ****      PE4   ------> LTDC_B0
  37:Core/Src/gpio.c ****      PE2   ------> QUADSPI_BK1_IO2
  38:Core/Src/gpio.c ****      PG14   ------> ETH_TXD1
  39:Core/Src/gpio.c ****      PE1   ------> FMC_NBL1
  40:Core/Src/gpio.c ****      PE0   ------> FMC_NBL0
  41:Core/Src/gpio.c ****      PB8   ------> I2C1_SCL
  42:Core/Src/gpio.c ****      PB5   ------> USB_OTG_HS_ULPI_D7
  43:Core/Src/gpio.c ****      PB4   ------> S_TIM3_CH1
  44:Core/Src/gpio.c ****      PD7   ------> SPDIFRX_IN0
  45:Core/Src/gpio.c ****      PC12   ------> SDMMC1_CK
  46:Core/Src/gpio.c ****      PA15   ------> S_TIM2_CH1_ETR
  47:Core/Src/gpio.c ****      PE5   ------> DCMI_D6
  48:Core/Src/gpio.c ****      PE6   ------> DCMI_D7
  49:Core/Src/gpio.c ****      PG13   ------> ETH_TXD0
  50:Core/Src/gpio.c ****      PB9   ------> I2C1_SDA
  51:Core/Src/gpio.c ****      PB6   ------> QUADSPI_BK1_NCS
  52:Core/Src/gpio.c ****      PG15   ------> FMC_SDNCAS
  53:Core/Src/gpio.c ****      PG11   ------> ETH_TX_EN
  54:Core/Src/gpio.c ****      PJ13   ------> LTDC_B1
  55:Core/Src/gpio.c ****      PD0   ------> FMC_D2_DA2
  56:Core/Src/gpio.c ****      PC11   ------> SDMMC1_D3
  57:Core/Src/gpio.c ****      PC10   ------> SDMMC1_D2
  58:Core/Src/gpio.c ****      PA12   ------> USB_OTG_FS_DP
  59:Core/Src/gpio.c ****      PI4   ------> SAI2_MCLK_A
  60:Core/Src/gpio.c ****      PK7   ------> LTDC_DE
  61:Core/Src/gpio.c ****      PK6   ------> LTDC_B7
  62:Core/Src/gpio.c ****      PK5   ------> LTDC_B6
  63:Core/Src/gpio.c ****      PG12   ------> LTDC_B4
  64:Core/Src/gpio.c ****      PG10   ------> SAI2_SD_B
  65:Core/Src/gpio.c ****      PJ14   ------> LTDC_B2
  66:Core/Src/gpio.c ****      PD3   ------> DCMI_D5
  67:Core/Src/gpio.c ****      PD1   ------> FMC_D3_DA3
  68:Core/Src/gpio.c ****      PA11   ------> USB_OTG_FS_DM
  69:Core/Src/gpio.c ****      PF0   ------> FMC_A0
  70:Core/Src/gpio.c ****      PI5   ------> SAI2_SCK_A
  71:Core/Src/gpio.c ****      PI7   ------> SAI2_FS_A
  72:Core/Src/gpio.c ****      PI10   ------> LTDC_HSYNC
  73:Core/Src/gpio.c ****      PI6   ------> SAI2_SD_A
  74:Core/Src/gpio.c ****      PK4   ------> LTDC_B5
  75:Core/Src/gpio.c ****      PG9   ------> DCMI_VSYNC
  76:Core/Src/gpio.c ****      PJ15   ------> LTDC_B3
  77:Core/Src/gpio.c ****      PD2   ------> SDMMC1_CMD
  78:Core/Src/gpio.c ****      PI1   ------> SPI2_SCK
  79:Core/Src/gpio.c ****      PA10   ------> USB_OTG_FS_ID
  80:Core/Src/gpio.c ****      PF1   ------> FMC_A1
  81:Core/Src/gpio.c ****      PI9   ------> LTDC_VSYNC
  82:Core/Src/gpio.c ****      PH14   ------> DCMI_D4
  83:Core/Src/gpio.c ****      PI0   ------> S_TIM5_CH4
  84:Core/Src/gpio.c ****      PK1   ------> LTDC_G6
  85:Core/Src/gpio.c ****      PK2   ------> LTDC_G7
  86:Core/Src/gpio.c ****      PC9   ------> SDMMC1_D1
  87:Core/Src/gpio.c ****      PA8   ------> S_TIM1_CH1
ARM GAS  C:\Users\billa\AppData\Local\Temp\ccRGzkBf.s 			page 3


  88:Core/Src/gpio.c ****      PF2   ------> FMC_A2
  89:Core/Src/gpio.c ****      PI15   ------> LTDC_R0
  90:Core/Src/gpio.c ****      PJ11   ------> LTDC_G4
  91:Core/Src/gpio.c ****      PK0   ------> LTDC_G5
  92:Core/Src/gpio.c ****      PC8   ------> SDMMC1_D0
  93:Core/Src/gpio.c ****      PC7   ------> USART6_RX
  94:Core/Src/gpio.c ****      PF3   ------> FMC_A3
  95:Core/Src/gpio.c ****      PI14   ------> LTDC_CLK
  96:Core/Src/gpio.c ****      PH4   ------> USB_OTG_HS_ULPI_NXT
  97:Core/Src/gpio.c ****      PJ8   ------> LTDC_G1
  98:Core/Src/gpio.c ****      PJ10   ------> LTDC_G3
  99:Core/Src/gpio.c ****      PG8   ------> FMC_SDCLK
 100:Core/Src/gpio.c ****      PC6   ------> USART6_TX
 101:Core/Src/gpio.c ****      PF4   ------> FMC_A4
 102:Core/Src/gpio.c ****      PH5   ------> FMC_SDNWE
 103:Core/Src/gpio.c ****      PH3   ------> FMC_SDNE0
 104:Core/Src/gpio.c ****      PJ7   ------> LTDC_G0
 105:Core/Src/gpio.c ****      PJ9   ------> LTDC_G2
 106:Core/Src/gpio.c ****      PF7   ------> ADC3_IN5
 107:Core/Src/gpio.c ****      PF6   ------> ADC3_IN4
 108:Core/Src/gpio.c ****      PF5   ------> FMC_A5
 109:Core/Src/gpio.c ****      PJ6   ------> LTDC_R7
 110:Core/Src/gpio.c ****      PD15   ------> FMC_D1_DA1
 111:Core/Src/gpio.c ****      PB13   ------> USB_OTG_HS_ULPI_D6
 112:Core/Src/gpio.c ****      PD10   ------> FMC_D15_DA15
 113:Core/Src/gpio.c ****      PF10   ------> ADC3_IN8
 114:Core/Src/gpio.c ****      PF9   ------> ADC3_IN7
 115:Core/Src/gpio.c ****      PF8   ------> ADC3_IN6
 116:Core/Src/gpio.c ****      PC3   ------> FMC_SDCKE0
 117:Core/Src/gpio.c ****      PD14   ------> FMC_D0_DA0
 118:Core/Src/gpio.c ****      PB12   ------> USB_OTG_HS_ULPI_D5
 119:Core/Src/gpio.c ****      PD9   ------> FMC_D14_DA14
 120:Core/Src/gpio.c ****      PD8   ------> FMC_D13_DA13
 121:Core/Src/gpio.c ****      PC0   ------> USB_OTG_HS_ULPI_STP
 122:Core/Src/gpio.c ****      PC1   ------> ETH_MDC
 123:Core/Src/gpio.c ****      PC2   ------> USB_OTG_HS_ULPI_DIR
 124:Core/Src/gpio.c ****      PB2   ------> QUADSPI_CLK
 125:Core/Src/gpio.c ****      PF12   ------> FMC_A6
 126:Core/Src/gpio.c ****      PG1   ------> FMC_A11
 127:Core/Src/gpio.c ****      PF15   ------> FMC_A9
 128:Core/Src/gpio.c ****      PJ4   ------> LTDC_R5
 129:Core/Src/gpio.c ****      PD12   ------> QUADSPI_BK1_IO1
 130:Core/Src/gpio.c ****      PD13   ------> QUADSPI_BK1_IO3
 131:Core/Src/gpio.c ****      PJ5   ------> LTDC_R6
 132:Core/Src/gpio.c ****      PH12   ------> DCMI_D3
 133:Core/Src/gpio.c ****      PA1   ------> ETH_REF_CLK
 134:Core/Src/gpio.c ****      PA0/WKUP   ------> ADCx_IN0
 135:Core/Src/gpio.c ****      PA4   ------> DCMI_HSYNC
 136:Core/Src/gpio.c ****      PC4   ------> ETH_RXD0
 137:Core/Src/gpio.c ****      PF13   ------> FMC_A7
 138:Core/Src/gpio.c ****      PG0   ------> FMC_A10
 139:Core/Src/gpio.c ****      PJ3   ------> LTDC_R4
 140:Core/Src/gpio.c ****      PE8   ------> FMC_D5_DA5
 141:Core/Src/gpio.c ****      PD11   ------> QUADSPI_BK1_IO0
 142:Core/Src/gpio.c ****      PG5   ------> FMC_A15_BA1
 143:Core/Src/gpio.c ****      PG4   ------> FMC_A14_BA0
 144:Core/Src/gpio.c ****      PH7   ------> I2C3_SCL
ARM GAS  C:\Users\billa\AppData\Local\Temp\ccRGzkBf.s 			page 4


 145:Core/Src/gpio.c ****      PH9   ------> DCMI_D0
 146:Core/Src/gpio.c ****      PH11   ------> DCMI_D2
 147:Core/Src/gpio.c ****      PA2   ------> ETH_MDIO
 148:Core/Src/gpio.c ****      PA6   ------> DCMI_PIXCLK
 149:Core/Src/gpio.c ****      PA5   ------> USB_OTG_HS_ULPI_CK
 150:Core/Src/gpio.c ****      PC5   ------> ETH_RXD1
 151:Core/Src/gpio.c ****      PF14   ------> FMC_A8
 152:Core/Src/gpio.c ****      PJ2   ------> LTDC_R3
 153:Core/Src/gpio.c ****      PF11   ------> FMC_SDNRAS
 154:Core/Src/gpio.c ****      PE9   ------> FMC_D6_DA6
 155:Core/Src/gpio.c ****      PE11   ------> FMC_D8_DA8
 156:Core/Src/gpio.c ****      PE14   ------> FMC_D11_DA11
 157:Core/Src/gpio.c ****      PB10   ------> USB_OTG_HS_ULPI_D3
 158:Core/Src/gpio.c ****      PH6   ------> S_TIM12_CH1
 159:Core/Src/gpio.c ****      PH8   ------> I2C3_SDA
 160:Core/Src/gpio.c ****      PH10   ------> DCMI_D1
 161:Core/Src/gpio.c ****      PA3   ------> USB_OTG_HS_ULPI_D0
 162:Core/Src/gpio.c ****      PA7   ------> ETH_CRS_DV
 163:Core/Src/gpio.c ****      PB1   ------> USB_OTG_HS_ULPI_D2
 164:Core/Src/gpio.c ****      PB0   ------> USB_OTG_HS_ULPI_D1
 165:Core/Src/gpio.c ****      PJ0   ------> LTDC_R1
 166:Core/Src/gpio.c ****      PJ1   ------> LTDC_R2
 167:Core/Src/gpio.c ****      PE7   ------> FMC_D4_DA4
 168:Core/Src/gpio.c ****      PE10   ------> FMC_D7_DA7
 169:Core/Src/gpio.c ****      PE12   ------> FMC_D9_DA9
 170:Core/Src/gpio.c ****      PE15   ------> FMC_D12_DA12
 171:Core/Src/gpio.c ****      PE13   ------> FMC_D10_DA10
 172:Core/Src/gpio.c ****      PB11   ------> USB_OTG_HS_ULPI_D4
 173:Core/Src/gpio.c ****      PB14   ------> SPI2_MISO
 174:Core/Src/gpio.c ****      PB15   ------> SPI2_MOSI
 175:Core/Src/gpio.c **** */
 176:Core/Src/gpio.c **** void MX_GPIO_Init(void)
 177:Core/Src/gpio.c **** {
  29              		.loc 1 177 1 view -0
  30              		.cfi_startproc
  31              		@ args = 0, pretend = 0, frame = 64
  32              		@ frame_needed = 0, uses_anonymous_args = 0
  33 0000 2DE9F04F 		push	{r4, r5, r6, r7, r8, r9, r10, fp, lr}
  34              		.cfi_def_cfa_offset 36
  35              		.cfi_offset 4, -36
  36              		.cfi_offset 5, -32
  37              		.cfi_offset 6, -28
  38              		.cfi_offset 7, -24
  39              		.cfi_offset 8, -20
  40              		.cfi_offset 9, -16
  41              		.cfi_offset 10, -12
  42              		.cfi_offset 11, -8
  43              		.cfi_offset 14, -4
  44 0004 91B0     		sub	sp, sp, #68
  45              		.cfi_def_cfa_offset 104
 178:Core/Src/gpio.c **** 
 179:Core/Src/gpio.c ****   GPIO_InitTypeDef GPIO_InitStruct = {0};
  46              		.loc 1 179 3 view .LVU1
  47              		.loc 1 179 20 is_stmt 0 view .LVU2
  48 0006 0024     		movs	r4, #0
  49 0008 0B94     		str	r4, [sp, #44]
  50 000a 0C94     		str	r4, [sp, #48]
ARM GAS  C:\Users\billa\AppData\Local\Temp\ccRGzkBf.s 			page 5


  51 000c 0D94     		str	r4, [sp, #52]
  52 000e 0E94     		str	r4, [sp, #56]
  53 0010 0F94     		str	r4, [sp, #60]
 180:Core/Src/gpio.c **** 
 181:Core/Src/gpio.c ****   /* GPIO Ports Clock Enable */
 182:Core/Src/gpio.c ****   __HAL_RCC_GPIOE_CLK_ENABLE();
  54              		.loc 1 182 3 is_stmt 1 view .LVU3
  55              	.LBB2:
  56              		.loc 1 182 3 view .LVU4
  57              		.loc 1 182 3 view .LVU5
  58 0012 AB4B     		ldr	r3, .L3
  59 0014 1A6B     		ldr	r2, [r3, #48]
  60 0016 42F01002 		orr	r2, r2, #16
  61 001a 1A63     		str	r2, [r3, #48]
  62              		.loc 1 182 3 view .LVU6
  63 001c 1A6B     		ldr	r2, [r3, #48]
  64 001e 02F01002 		and	r2, r2, #16
  65 0022 0092     		str	r2, [sp]
  66              		.loc 1 182 3 view .LVU7
  67 0024 009A     		ldr	r2, [sp]
  68              	.LBE2:
  69              		.loc 1 182 3 view .LVU8
 183:Core/Src/gpio.c ****   __HAL_RCC_GPIOG_CLK_ENABLE();
  70              		.loc 1 183 3 view .LVU9
  71              	.LBB3:
  72              		.loc 1 183 3 view .LVU10
  73              		.loc 1 183 3 view .LVU11
  74 0026 1A6B     		ldr	r2, [r3, #48]
  75 0028 42F04002 		orr	r2, r2, #64
  76 002c 1A63     		str	r2, [r3, #48]
  77              		.loc 1 183 3 view .LVU12
  78 002e 1A6B     		ldr	r2, [r3, #48]
  79 0030 02F04002 		and	r2, r2, #64
  80 0034 0192     		str	r2, [sp, #4]
  81              		.loc 1 183 3 view .LVU13
  82 0036 019A     		ldr	r2, [sp, #4]
  83              	.LBE3:
  84              		.loc 1 183 3 view .LVU14
 184:Core/Src/gpio.c ****   __HAL_RCC_GPIOB_CLK_ENABLE();
  85              		.loc 1 184 3 view .LVU15
  86              	.LBB4:
  87              		.loc 1 184 3 view .LVU16
  88              		.loc 1 184 3 view .LVU17
  89 0038 1A6B     		ldr	r2, [r3, #48]
  90 003a 42F00202 		orr	r2, r2, #2
  91 003e 1A63     		str	r2, [r3, #48]
  92              		.loc 1 184 3 view .LVU18
  93 0040 1A6B     		ldr	r2, [r3, #48]
  94 0042 02F00202 		and	r2, r2, #2
  95 0046 0292     		str	r2, [sp, #8]
  96              		.loc 1 184 3 view .LVU19
  97 0048 029A     		ldr	r2, [sp, #8]
  98              	.LBE4:
  99              		.loc 1 184 3 view .LVU20
 185:Core/Src/gpio.c ****   __HAL_RCC_GPIOD_CLK_ENABLE();
 100              		.loc 1 185 3 view .LVU21
 101              	.LBB5:
ARM GAS  C:\Users\billa\AppData\Local\Temp\ccRGzkBf.s 			page 6


 102              		.loc 1 185 3 view .LVU22
 103              		.loc 1 185 3 view .LVU23
 104 004a 1A6B     		ldr	r2, [r3, #48]
 105 004c 42F00802 		orr	r2, r2, #8
 106 0050 1A63     		str	r2, [r3, #48]
 107              		.loc 1 185 3 view .LVU24
 108 0052 1A6B     		ldr	r2, [r3, #48]
 109 0054 02F00802 		and	r2, r2, #8
 110 0058 0392     		str	r2, [sp, #12]
 111              		.loc 1 185 3 view .LVU25
 112 005a 039A     		ldr	r2, [sp, #12]
 113              	.LBE5:
 114              		.loc 1 185 3 view .LVU26
 186:Core/Src/gpio.c ****   __HAL_RCC_GPIOC_CLK_ENABLE();
 115              		.loc 1 186 3 view .LVU27
 116              	.LBB6:
 117              		.loc 1 186 3 view .LVU28
 118              		.loc 1 186 3 view .LVU29
 119 005c 1A6B     		ldr	r2, [r3, #48]
 120 005e 42F00402 		orr	r2, r2, #4
 121 0062 1A63     		str	r2, [r3, #48]
 122              		.loc 1 186 3 view .LVU30
 123 0064 1A6B     		ldr	r2, [r3, #48]
 124 0066 02F00402 		and	r2, r2, #4
 125 006a 0492     		str	r2, [sp, #16]
 126              		.loc 1 186 3 view .LVU31
 127 006c 049A     		ldr	r2, [sp, #16]
 128              	.LBE6:
 129              		.loc 1 186 3 view .LVU32
 187:Core/Src/gpio.c ****   __HAL_RCC_GPIOA_CLK_ENABLE();
 130              		.loc 1 187 3 view .LVU33
 131              	.LBB7:
 132              		.loc 1 187 3 view .LVU34
 133              		.loc 1 187 3 view .LVU35
 134 006e 1A6B     		ldr	r2, [r3, #48]
 135 0070 42F00102 		orr	r2, r2, #1
 136 0074 1A63     		str	r2, [r3, #48]
 137              		.loc 1 187 3 view .LVU36
 138 0076 1A6B     		ldr	r2, [r3, #48]
 139 0078 02F00102 		and	r2, r2, #1
 140 007c 0592     		str	r2, [sp, #20]
 141              		.loc 1 187 3 view .LVU37
 142 007e 059A     		ldr	r2, [sp, #20]
 143              	.LBE7:
 144              		.loc 1 187 3 view .LVU38
 188:Core/Src/gpio.c ****   __HAL_RCC_GPIOJ_CLK_ENABLE();
 145              		.loc 1 188 3 view .LVU39
 146              	.LBB8:
 147              		.loc 1 188 3 view .LVU40
 148              		.loc 1 188 3 view .LVU41
 149 0080 1A6B     		ldr	r2, [r3, #48]
 150 0082 42F40072 		orr	r2, r2, #512
 151 0086 1A63     		str	r2, [r3, #48]
 152              		.loc 1 188 3 view .LVU42
 153 0088 1A6B     		ldr	r2, [r3, #48]
 154 008a 02F40072 		and	r2, r2, #512
 155 008e 0692     		str	r2, [sp, #24]
ARM GAS  C:\Users\billa\AppData\Local\Temp\ccRGzkBf.s 			page 7


 156              		.loc 1 188 3 view .LVU43
 157 0090 069A     		ldr	r2, [sp, #24]
 158              	.LBE8:
 159              		.loc 1 188 3 view .LVU44
 189:Core/Src/gpio.c ****   __HAL_RCC_GPIOI_CLK_ENABLE();
 160              		.loc 1 189 3 view .LVU45
 161              	.LBB9:
 162              		.loc 1 189 3 view .LVU46
 163              		.loc 1 189 3 view .LVU47
 164 0092 1A6B     		ldr	r2, [r3, #48]
 165 0094 42F48072 		orr	r2, r2, #256
 166 0098 1A63     		str	r2, [r3, #48]
 167              		.loc 1 189 3 view .LVU48
 168 009a 1A6B     		ldr	r2, [r3, #48]
 169 009c 02F48072 		and	r2, r2, #256
 170 00a0 0792     		str	r2, [sp, #28]
 171              		.loc 1 189 3 view .LVU49
 172 00a2 079A     		ldr	r2, [sp, #28]
 173              	.LBE9:
 174              		.loc 1 189 3 view .LVU50
 190:Core/Src/gpio.c ****   __HAL_RCC_GPIOK_CLK_ENABLE();
 175              		.loc 1 190 3 view .LVU51
 176              	.LBB10:
 177              		.loc 1 190 3 view .LVU52
 178              		.loc 1 190 3 view .LVU53
 179 00a4 1A6B     		ldr	r2, [r3, #48]
 180 00a6 42F48062 		orr	r2, r2, #1024
 181 00aa 1A63     		str	r2, [r3, #48]
 182              		.loc 1 190 3 view .LVU54
 183 00ac 1A6B     		ldr	r2, [r3, #48]
 184 00ae 02F48062 		and	r2, r2, #1024
 185 00b2 0892     		str	r2, [sp, #32]
 186              		.loc 1 190 3 view .LVU55
 187 00b4 089A     		ldr	r2, [sp, #32]
 188              	.LBE10:
 189              		.loc 1 190 3 view .LVU56
 191:Core/Src/gpio.c ****   __HAL_RCC_GPIOF_CLK_ENABLE();
 190              		.loc 1 191 3 view .LVU57
 191              	.LBB11:
 192              		.loc 1 191 3 view .LVU58
 193              		.loc 1 191 3 view .LVU59
 194 00b6 1A6B     		ldr	r2, [r3, #48]
 195 00b8 42F02002 		orr	r2, r2, #32
 196 00bc 1A63     		str	r2, [r3, #48]
 197              		.loc 1 191 3 view .LVU60
 198 00be 1A6B     		ldr	r2, [r3, #48]
 199 00c0 02F02002 		and	r2, r2, #32
 200 00c4 0992     		str	r2, [sp, #36]
 201              		.loc 1 191 3 view .LVU61
 202 00c6 099A     		ldr	r2, [sp, #36]
 203              	.LBE11:
 204              		.loc 1 191 3 view .LVU62
 192:Core/Src/gpio.c ****   __HAL_RCC_GPIOH_CLK_ENABLE();
 205              		.loc 1 192 3 view .LVU63
 206              	.LBB12:
 207              		.loc 1 192 3 view .LVU64
 208              		.loc 1 192 3 view .LVU65
ARM GAS  C:\Users\billa\AppData\Local\Temp\ccRGzkBf.s 			page 8


 209 00c8 1A6B     		ldr	r2, [r3, #48]
 210 00ca 42F08002 		orr	r2, r2, #128
 211 00ce 1A63     		str	r2, [r3, #48]
 212              		.loc 1 192 3 view .LVU66
 213 00d0 1B6B     		ldr	r3, [r3, #48]
 214 00d2 03F08003 		and	r3, r3, #128
 215 00d6 0A93     		str	r3, [sp, #40]
 216              		.loc 1 192 3 view .LVU67
 217 00d8 0A9B     		ldr	r3, [sp, #40]
 218              	.LBE12:
 219              		.loc 1 192 3 view .LVU68
 193:Core/Src/gpio.c **** 
 194:Core/Src/gpio.c ****   /*Configure GPIO pin Output Level */
 195:Core/Src/gpio.c ****   HAL_GPIO_WritePin(OTG_FS_PowerSwitchOn_GPIO_Port, OTG_FS_PowerSwitchOn_Pin, GPIO_PIN_SET);
 220              		.loc 1 195 3 view .LVU69
 221 00da DFF80882 		ldr	r8, .L3+36
 222 00de 0122     		movs	r2, #1
 223 00e0 2021     		movs	r1, #32
 224 00e2 4046     		mov	r0, r8
 225 00e4 FFF7FEFF 		bl	HAL_GPIO_WritePin
 226              	.LVL0:
 196:Core/Src/gpio.c **** 
 197:Core/Src/gpio.c ****   /*Configure GPIO pin Output Level */
 198:Core/Src/gpio.c ****   HAL_GPIO_WritePin(GPIOI, ARDUINO_D7_Pin|ARDUINO_D8_Pin|LCD_DISP_Pin, GPIO_PIN_RESET);
 227              		.loc 1 198 3 view .LVU70
 228 00e8 2246     		mov	r2, r4
 229 00ea 41F20C01 		movw	r1, #4108
 230 00ee 7548     		ldr	r0, .L3+4
 231 00f0 FFF7FEFF 		bl	HAL_GPIO_WritePin
 232              	.LVL1:
 199:Core/Src/gpio.c **** 
 200:Core/Src/gpio.c ****   /*Configure GPIO pin Output Level */
 201:Core/Src/gpio.c ****   HAL_GPIO_WritePin(LCD_BL_CTRL_GPIO_Port, LCD_BL_CTRL_Pin, GPIO_PIN_RESET);
 233              		.loc 1 201 3 view .LVU71
 234 00f4 2246     		mov	r2, r4
 235 00f6 0821     		movs	r1, #8
 236 00f8 7348     		ldr	r0, .L3+8
 237 00fa FFF7FEFF 		bl	HAL_GPIO_WritePin
 238              	.LVL2:
 202:Core/Src/gpio.c **** 
 203:Core/Src/gpio.c ****   /*Configure GPIO pin Output Level */
 204:Core/Src/gpio.c ****   HAL_GPIO_WritePin(DCMI_PWR_EN_GPIO_Port, DCMI_PWR_EN_Pin, GPIO_PIN_RESET);
 239              		.loc 1 204 3 view .LVU72
 240 00fe 2246     		mov	r2, r4
 241 0100 4FF40051 		mov	r1, #8192
 242 0104 7148     		ldr	r0, .L3+12
 243 0106 FFF7FEFF 		bl	HAL_GPIO_WritePin
 244              	.LVL3:
 205:Core/Src/gpio.c **** 
 206:Core/Src/gpio.c ****   /*Configure GPIO pin Output Level */
 207:Core/Src/gpio.c ****   HAL_GPIO_WritePin(GPIOG, ARDUINO_D4_Pin|ARDUINO_D2_Pin|EXT_RST_Pin, GPIO_PIN_RESET);
 245              		.loc 1 207 3 view .LVU73
 246 010a 2246     		mov	r2, r4
 247 010c C821     		movs	r1, #200
 248 010e 7048     		ldr	r0, .L3+16
 249 0110 FFF7FEFF 		bl	HAL_GPIO_WritePin
 250              	.LVL4:
ARM GAS  C:\Users\billa\AppData\Local\Temp\ccRGzkBf.s 			page 9


 208:Core/Src/gpio.c **** 
 209:Core/Src/gpio.c ****   /*Configure GPIO pin : PtPin */
 210:Core/Src/gpio.c ****   GPIO_InitStruct.Pin = LCD_B0_Pin;
 251              		.loc 1 210 3 view .LVU74
 252              		.loc 1 210 23 is_stmt 0 view .LVU75
 253 0114 1023     		movs	r3, #16
 254 0116 0B93     		str	r3, [sp, #44]
 211:Core/Src/gpio.c ****   GPIO_InitStruct.Mode = GPIO_MODE_AF_PP;
 255              		.loc 1 211 3 is_stmt 1 view .LVU76
 256              		.loc 1 211 24 is_stmt 0 view .LVU77
 257 0118 0225     		movs	r5, #2
 258 011a 0C95     		str	r5, [sp, #48]
 212:Core/Src/gpio.c ****   GPIO_InitStruct.Pull = GPIO_NOPULL;
 259              		.loc 1 212 3 is_stmt 1 view .LVU78
 260              		.loc 1 212 24 is_stmt 0 view .LVU79
 261 011c 0D94     		str	r4, [sp, #52]
 213:Core/Src/gpio.c ****   GPIO_InitStruct.Speed = GPIO_SPEED_FREQ_LOW;
 262              		.loc 1 213 3 is_stmt 1 view .LVU80
 263              		.loc 1 213 25 is_stmt 0 view .LVU81
 264 011e 0E94     		str	r4, [sp, #56]
 214:Core/Src/gpio.c ****   GPIO_InitStruct.Alternate = GPIO_AF14_LTDC;
 265              		.loc 1 214 3 is_stmt 1 view .LVU82
 266              		.loc 1 214 29 is_stmt 0 view .LVU83
 267 0120 0E23     		movs	r3, #14
 268 0122 0F93     		str	r3, [sp, #60]
 215:Core/Src/gpio.c ****   HAL_GPIO_Init(LCD_B0_GPIO_Port, &GPIO_InitStruct);
 269              		.loc 1 215 3 is_stmt 1 view .LVU84
 270 0124 DFF8C0A1 		ldr	r10, .L3+40
 271 0128 0BA9     		add	r1, sp, #44
 272 012a 5046     		mov	r0, r10
 273 012c FFF7FEFF 		bl	HAL_GPIO_Init
 274              	.LVL5:
 216:Core/Src/gpio.c **** 
 217:Core/Src/gpio.c ****   /*Configure GPIO pin : PtPin */
 218:Core/Src/gpio.c ****   GPIO_InitStruct.Pin = OTG_HS_OverCurrent_Pin;
 275              		.loc 1 218 3 view .LVU85
 276              		.loc 1 218 23 is_stmt 0 view .LVU86
 277 0130 0823     		movs	r3, #8
 278 0132 0B93     		str	r3, [sp, #44]
 219:Core/Src/gpio.c ****   GPIO_InitStruct.Mode = GPIO_MODE_INPUT;
 279              		.loc 1 219 3 is_stmt 1 view .LVU87
 280              		.loc 1 219 24 is_stmt 0 view .LVU88
 281 0134 0C94     		str	r4, [sp, #48]
 220:Core/Src/gpio.c ****   GPIO_InitStruct.Pull = GPIO_NOPULL;
 282              		.loc 1 220 3 is_stmt 1 view .LVU89
 283              		.loc 1 220 24 is_stmt 0 view .LVU90
 284 0136 0D94     		str	r4, [sp, #52]
 221:Core/Src/gpio.c ****   HAL_GPIO_Init(OTG_HS_OverCurrent_GPIO_Port, &GPIO_InitStruct);
 285              		.loc 1 221 3 is_stmt 1 view .LVU91
 286 0138 0BA9     		add	r1, sp, #44
 287 013a 5046     		mov	r0, r10
 288 013c FFF7FEFF 		bl	HAL_GPIO_Init
 289              	.LVL6:
 222:Core/Src/gpio.c **** 
 223:Core/Src/gpio.c ****   /*Configure GPIO pin : PtPin */
 224:Core/Src/gpio.c ****   GPIO_InitStruct.Pin = QSPI_D2_Pin;
 290              		.loc 1 224 3 view .LVU92
ARM GAS  C:\Users\billa\AppData\Local\Temp\ccRGzkBf.s 			page 10


 291              		.loc 1 224 23 is_stmt 0 view .LVU93
 292 0140 0423     		movs	r3, #4
 293 0142 0B93     		str	r3, [sp, #44]
 225:Core/Src/gpio.c ****   GPIO_InitStruct.Mode = GPIO_MODE_AF_PP;
 294              		.loc 1 225 3 is_stmt 1 view .LVU94
 295              		.loc 1 225 24 is_stmt 0 view .LVU95
 296 0144 0C95     		str	r5, [sp, #48]
 226:Core/Src/gpio.c ****   GPIO_InitStruct.Pull = GPIO_NOPULL;
 297              		.loc 1 226 3 is_stmt 1 view .LVU96
 298              		.loc 1 226 24 is_stmt 0 view .LVU97
 299 0146 0D94     		str	r4, [sp, #52]
 227:Core/Src/gpio.c ****   GPIO_InitStruct.Speed = GPIO_SPEED_FREQ_VERY_HIGH;
 300              		.loc 1 227 3 is_stmt 1 view .LVU98
 301              		.loc 1 227 25 is_stmt 0 view .LVU99
 302 0148 0326     		movs	r6, #3
 303 014a 0E96     		str	r6, [sp, #56]
 228:Core/Src/gpio.c ****   GPIO_InitStruct.Alternate = GPIO_AF9_QUADSPI;
 304              		.loc 1 228 3 is_stmt 1 view .LVU100
 305              		.loc 1 228 29 is_stmt 0 view .LVU101
 306 014c 0923     		movs	r3, #9
 307 014e 0F93     		str	r3, [sp, #60]
 229:Core/Src/gpio.c ****   HAL_GPIO_Init(QSPI_D2_GPIO_Port, &GPIO_InitStruct);
 308              		.loc 1 229 3 is_stmt 1 view .LVU102
 309 0150 0BA9     		add	r1, sp, #44
 310 0152 5046     		mov	r0, r10
 311 0154 FFF7FEFF 		bl	HAL_GPIO_Init
 312              	.LVL7:
 230:Core/Src/gpio.c **** 
 231:Core/Src/gpio.c ****   /*Configure GPIO pins : PGPin PGPin PGPin */
 232:Core/Src/gpio.c ****   GPIO_InitStruct.Pin = RMII_TXD1_Pin|RMII_TXD0_Pin|RMII_TX_EN_Pin;
 313              		.loc 1 232 3 view .LVU103
 314              		.loc 1 232 23 is_stmt 0 view .LVU104
 315 0158 4FF4D043 		mov	r3, #26624
 316 015c 0B93     		str	r3, [sp, #44]
 233:Core/Src/gpio.c ****   GPIO_InitStruct.Mode = GPIO_MODE_AF_PP;
 317              		.loc 1 233 3 is_stmt 1 view .LVU105
 318              		.loc 1 233 24 is_stmt 0 view .LVU106
 319 015e 0C95     		str	r5, [sp, #48]
 234:Core/Src/gpio.c ****   GPIO_InitStruct.Pull = GPIO_NOPULL;
 320              		.loc 1 234 3 is_stmt 1 view .LVU107
 321              		.loc 1 234 24 is_stmt 0 view .LVU108
 322 0160 0D94     		str	r4, [sp, #52]
 235:Core/Src/gpio.c ****   GPIO_InitStruct.Speed = GPIO_SPEED_FREQ_VERY_HIGH;
 323              		.loc 1 235 3 is_stmt 1 view .LVU109
 324              		.loc 1 235 25 is_stmt 0 view .LVU110
 325 0162 0E96     		str	r6, [sp, #56]
 236:Core/Src/gpio.c ****   GPIO_InitStruct.Alternate = GPIO_AF11_ETH;
 326              		.loc 1 236 3 is_stmt 1 view .LVU111
 327              		.loc 1 236 29 is_stmt 0 view .LVU112
 328 0164 0B23     		movs	r3, #11
 329 0166 0F93     		str	r3, [sp, #60]
 237:Core/Src/gpio.c ****   HAL_GPIO_Init(GPIOG, &GPIO_InitStruct);
 330              		.loc 1 237 3 is_stmt 1 view .LVU113
 331 0168 0BA9     		add	r1, sp, #44
 332 016a 5948     		ldr	r0, .L3+16
 333 016c FFF7FEFF 		bl	HAL_GPIO_Init
 334              	.LVL8:
ARM GAS  C:\Users\billa\AppData\Local\Temp\ccRGzkBf.s 			page 11


 238:Core/Src/gpio.c **** 
 239:Core/Src/gpio.c ****   /*Configure GPIO pins : PEPin PEPin PEPin PEPin
 240:Core/Src/gpio.c ****                            PEPin PEPin PEPin PEPin
 241:Core/Src/gpio.c ****                            PEPin PEPin PEPin */
 242:Core/Src/gpio.c ****   GPIO_InitStruct.Pin = FMC_NBL1_Pin|FMC_NBL0_Pin|FMC_D5_Pin|FMC_D6_Pin
 335              		.loc 1 242 3 view .LVU114
 336              		.loc 1 242 23 is_stmt 0 view .LVU115
 337 0170 4FF68373 		movw	r3, #65411
 338 0174 0B93     		str	r3, [sp, #44]
 243:Core/Src/gpio.c ****                           |FMC_D8_Pin|FMC_D11_Pin|FMC_D4_Pin|FMC_D7_Pin
 244:Core/Src/gpio.c ****                           |FMC_D9_Pin|FMC_D12_Pin|FMC_D10_Pin;
 245:Core/Src/gpio.c ****   GPIO_InitStruct.Mode = GPIO_MODE_AF_PP;
 339              		.loc 1 245 3 is_stmt 1 view .LVU116
 340              		.loc 1 245 24 is_stmt 0 view .LVU117
 341 0176 0C95     		str	r5, [sp, #48]
 246:Core/Src/gpio.c ****   GPIO_InitStruct.Pull = GPIO_NOPULL;
 342              		.loc 1 246 3 is_stmt 1 view .LVU118
 343              		.loc 1 246 24 is_stmt 0 view .LVU119
 344 0178 0D94     		str	r4, [sp, #52]
 247:Core/Src/gpio.c ****   GPIO_InitStruct.Speed = GPIO_SPEED_FREQ_VERY_HIGH;
 345              		.loc 1 247 3 is_stmt 1 view .LVU120
 346              		.loc 1 247 25 is_stmt 0 view .LVU121
 347 017a 0E96     		str	r6, [sp, #56]
 248:Core/Src/gpio.c ****   GPIO_InitStruct.Alternate = GPIO_AF12_FMC;
 348              		.loc 1 248 3 is_stmt 1 view .LVU122
 349              		.loc 1 248 29 is_stmt 0 view .LVU123
 350 017c 4FF00C09 		mov	r9, #12
 351 0180 CDF83C90 		str	r9, [sp, #60]
 249:Core/Src/gpio.c ****   HAL_GPIO_Init(GPIOE, &GPIO_InitStruct);
 352              		.loc 1 249 3 is_stmt 1 view .LVU124
 353 0184 0BA9     		add	r1, sp, #44
 354 0186 5046     		mov	r0, r10
 355 0188 FFF7FEFF 		bl	HAL_GPIO_Init
 356              	.LVL9:
 250:Core/Src/gpio.c **** 
 251:Core/Src/gpio.c ****   /*Configure GPIO pins : PBPin PBPin */
 252:Core/Src/gpio.c ****   GPIO_InitStruct.Pin = ARDUINO_SCL_D15_Pin|ARDUINO_SDA_D14_Pin;
 357              		.loc 1 252 3 view .LVU125
 358              		.loc 1 252 23 is_stmt 0 view .LVU126
 359 018c 4FF44073 		mov	r3, #768
 360 0190 0B93     		str	r3, [sp, #44]
 253:Core/Src/gpio.c ****   GPIO_InitStruct.Mode = GPIO_MODE_AF_OD;
 361              		.loc 1 253 3 is_stmt 1 view .LVU127
 362              		.loc 1 253 24 is_stmt 0 view .LVU128
 363 0192 1223     		movs	r3, #18
 364 0194 0C93     		str	r3, [sp, #48]
 254:Core/Src/gpio.c ****   GPIO_InitStruct.Pull = GPIO_NOPULL;
 365              		.loc 1 254 3 is_stmt 1 view .LVU129
 366              		.loc 1 254 24 is_stmt 0 view .LVU130
 367 0196 0D94     		str	r4, [sp, #52]
 255:Core/Src/gpio.c ****   GPIO_InitStruct.Speed = GPIO_SPEED_FREQ_LOW;
 368              		.loc 1 255 3 is_stmt 1 view .LVU131
 369              		.loc 1 255 25 is_stmt 0 view .LVU132
 370 0198 0E94     		str	r4, [sp, #56]
 256:Core/Src/gpio.c ****   GPIO_InitStruct.Alternate = GPIO_AF4_I2C1;
 371              		.loc 1 256 3 is_stmt 1 view .LVU133
 372              		.loc 1 256 29 is_stmt 0 view .LVU134
ARM GAS  C:\Users\billa\AppData\Local\Temp\ccRGzkBf.s 			page 12


 373 019a 0423     		movs	r3, #4
 374 019c 0F93     		str	r3, [sp, #60]
 257:Core/Src/gpio.c ****   HAL_GPIO_Init(GPIOB, &GPIO_InitStruct);
 375              		.loc 1 257 3 is_stmt 1 view .LVU135
 376 019e 0BA9     		add	r1, sp, #44
 377 01a0 4C48     		ldr	r0, .L3+20
 378 01a2 FFF7FEFF 		bl	HAL_GPIO_Init
 379              	.LVL10:
 258:Core/Src/gpio.c **** 
 259:Core/Src/gpio.c ****   /*Configure GPIO pins : PBPin PBPin PBPin PBPin
 260:Core/Src/gpio.c ****                            PBPin PBPin PBPin */
 261:Core/Src/gpio.c ****   GPIO_InitStruct.Pin = ULPI_D7_Pin|ULPI_D6_Pin|ULPI_D5_Pin|ULPI_D3_Pin
 380              		.loc 1 261 3 view .LVU136
 381              		.loc 1 261 23 is_stmt 0 view .LVU137
 382 01a6 43F62343 		movw	r3, #15395
 383 01aa 0B93     		str	r3, [sp, #44]
 262:Core/Src/gpio.c ****                           |ULPI_D2_Pin|ULPI_D1_Pin|ULPI_D4_Pin;
 263:Core/Src/gpio.c ****   GPIO_InitStruct.Mode = GPIO_MODE_AF_PP;
 384              		.loc 1 263 3 is_stmt 1 view .LVU138
 385              		.loc 1 263 24 is_stmt 0 view .LVU139
 386 01ac 0C95     		str	r5, [sp, #48]
 264:Core/Src/gpio.c ****   GPIO_InitStruct.Pull = GPIO_NOPULL;
 387              		.loc 1 264 3 is_stmt 1 view .LVU140
 388              		.loc 1 264 24 is_stmt 0 view .LVU141
 389 01ae 0D94     		str	r4, [sp, #52]
 265:Core/Src/gpio.c ****   GPIO_InitStruct.Speed = GPIO_SPEED_FREQ_VERY_HIGH;
 390              		.loc 1 265 3 is_stmt 1 view .LVU142
 391              		.loc 1 265 25 is_stmt 0 view .LVU143
 392 01b0 0E96     		str	r6, [sp, #56]
 266:Core/Src/gpio.c ****   GPIO_InitStruct.Alternate = GPIO_AF10_OTG_HS;
 393              		.loc 1 266 3 is_stmt 1 view .LVU144
 394              		.loc 1 266 29 is_stmt 0 view .LVU145
 395 01b2 4FF00A0B 		mov	fp, #10
 396 01b6 CDF83CB0 		str	fp, [sp, #60]
 267:Core/Src/gpio.c ****   HAL_GPIO_Init(GPIOB, &GPIO_InitStruct);
 397              		.loc 1 267 3 is_stmt 1 view .LVU146
 398 01ba 0BA9     		add	r1, sp, #44
 399 01bc 4548     		ldr	r0, .L3+20
 400 01be FFF7FEFF 		bl	HAL_GPIO_Init
 401              	.LVL11:
 268:Core/Src/gpio.c **** 
 269:Core/Src/gpio.c ****   /*Configure GPIO pin : PtPin */
 270:Core/Src/gpio.c ****   GPIO_InitStruct.Pin = ARDUINO_PWM_D3_Pin;
 402              		.loc 1 270 3 view .LVU147
 403              		.loc 1 270 23 is_stmt 0 view .LVU148
 404 01c2 1023     		movs	r3, #16
 405 01c4 0B93     		str	r3, [sp, #44]
 271:Core/Src/gpio.c ****   GPIO_InitStruct.Mode = GPIO_MODE_AF_PP;
 406              		.loc 1 271 3 is_stmt 1 view .LVU149
 407              		.loc 1 271 24 is_stmt 0 view .LVU150
 408 01c6 0C95     		str	r5, [sp, #48]
 272:Core/Src/gpio.c ****   GPIO_InitStruct.Pull = GPIO_NOPULL;
 409              		.loc 1 272 3 is_stmt 1 view .LVU151
 410              		.loc 1 272 24 is_stmt 0 view .LVU152
 411 01c8 0D94     		str	r4, [sp, #52]
 273:Core/Src/gpio.c ****   GPIO_InitStruct.Speed = GPIO_SPEED_FREQ_LOW;
 412              		.loc 1 273 3 is_stmt 1 view .LVU153
ARM GAS  C:\Users\billa\AppData\Local\Temp\ccRGzkBf.s 			page 13


 413              		.loc 1 273 25 is_stmt 0 view .LVU154
 414 01ca 0E94     		str	r4, [sp, #56]
 274:Core/Src/gpio.c ****   GPIO_InitStruct.Alternate = GPIO_AF2_TIM3;
 415              		.loc 1 274 3 is_stmt 1 view .LVU155
 416              		.loc 1 274 29 is_stmt 0 view .LVU156
 417 01cc 0F95     		str	r5, [sp, #60]
 275:Core/Src/gpio.c ****   HAL_GPIO_Init(ARDUINO_PWM_D3_GPIO_Port, &GPIO_InitStruct);
 418              		.loc 1 275 3 is_stmt 1 view .LVU157
 419 01ce 0BA9     		add	r1, sp, #44
 420 01d0 4048     		ldr	r0, .L3+20
 421 01d2 FFF7FEFF 		bl	HAL_GPIO_Init
 422              	.LVL12:
 276:Core/Src/gpio.c **** 
 277:Core/Src/gpio.c ****   /*Configure GPIO pin : PtPin */
 278:Core/Src/gpio.c ****   GPIO_InitStruct.Pin = SPDIF_RX0_Pin;
 423              		.loc 1 278 3 view .LVU158
 424              		.loc 1 278 23 is_stmt 0 view .LVU159
 425 01d6 8023     		movs	r3, #128
 426 01d8 0B93     		str	r3, [sp, #44]
 279:Core/Src/gpio.c ****   GPIO_InitStruct.Mode = GPIO_MODE_AF_PP;
 427              		.loc 1 279 3 is_stmt 1 view .LVU160
 428              		.loc 1 279 24 is_stmt 0 view .LVU161
 429 01da 0C95     		str	r5, [sp, #48]
 280:Core/Src/gpio.c ****   GPIO_InitStruct.Pull = GPIO_NOPULL;
 430              		.loc 1 280 3 is_stmt 1 view .LVU162
 431              		.loc 1 280 24 is_stmt 0 view .LVU163
 432 01dc 0D94     		str	r4, [sp, #52]
 281:Core/Src/gpio.c ****   GPIO_InitStruct.Speed = GPIO_SPEED_FREQ_LOW;
 433              		.loc 1 281 3 is_stmt 1 view .LVU164
 434              		.loc 1 281 25 is_stmt 0 view .LVU165
 435 01de 0E94     		str	r4, [sp, #56]
 282:Core/Src/gpio.c ****   GPIO_InitStruct.Alternate = GPIO_AF8_SPDIFRX;
 436              		.loc 1 282 3 is_stmt 1 view .LVU166
 437              		.loc 1 282 29 is_stmt 0 view .LVU167
 438 01e0 0823     		movs	r3, #8
 439 01e2 0F93     		str	r3, [sp, #60]
 283:Core/Src/gpio.c ****   HAL_GPIO_Init(SPDIF_RX0_GPIO_Port, &GPIO_InitStruct);
 440              		.loc 1 283 3 is_stmt 1 view .LVU168
 441 01e4 0BA9     		add	r1, sp, #44
 442 01e6 4046     		mov	r0, r8
 443 01e8 FFF7FEFF 		bl	HAL_GPIO_Init
 444              	.LVL13:
 284:Core/Src/gpio.c **** 
 285:Core/Src/gpio.c ****   /*Configure GPIO pins : PCPin PCPin PCPin PC9
 286:Core/Src/gpio.c ****                            PC8 */
 287:Core/Src/gpio.c ****   GPIO_InitStruct.Pin = SDMMC_CK_Pin|SDMMC_D3_Pin|SDMMC_D2_Pin|GPIO_PIN_9
 445              		.loc 1 287 3 view .LVU169
 446              		.loc 1 287 23 is_stmt 0 view .LVU170
 447 01ec 4FF4F853 		mov	r3, #7936
 448 01f0 0B93     		str	r3, [sp, #44]
 288:Core/Src/gpio.c ****                           |GPIO_PIN_8;
 289:Core/Src/gpio.c ****   GPIO_InitStruct.Mode = GPIO_MODE_AF_PP;
 449              		.loc 1 289 3 is_stmt 1 view .LVU171
 450              		.loc 1 289 24 is_stmt 0 view .LVU172
 451 01f2 0C95     		str	r5, [sp, #48]
 290:Core/Src/gpio.c ****   GPIO_InitStruct.Pull = GPIO_NOPULL;
 452              		.loc 1 290 3 is_stmt 1 view .LVU173
ARM GAS  C:\Users\billa\AppData\Local\Temp\ccRGzkBf.s 			page 14


 453              		.loc 1 290 24 is_stmt 0 view .LVU174
 454 01f4 0D94     		str	r4, [sp, #52]
 291:Core/Src/gpio.c ****   GPIO_InitStruct.Speed = GPIO_SPEED_FREQ_VERY_HIGH;
 455              		.loc 1 291 3 is_stmt 1 view .LVU175
 456              		.loc 1 291 25 is_stmt 0 view .LVU176
 457 01f6 0E96     		str	r6, [sp, #56]
 292:Core/Src/gpio.c ****   GPIO_InitStruct.Alternate = GPIO_AF12_SDMMC1;
 458              		.loc 1 292 3 is_stmt 1 view .LVU177
 459              		.loc 1 292 29 is_stmt 0 view .LVU178
 460 01f8 CDF83C90 		str	r9, [sp, #60]
 293:Core/Src/gpio.c ****   HAL_GPIO_Init(GPIOC, &GPIO_InitStruct);
 461              		.loc 1 293 3 is_stmt 1 view .LVU179
 462 01fc 0BA9     		add	r1, sp, #44
 463 01fe 3648     		ldr	r0, .L3+24
 464 0200 FFF7FEFF 		bl	HAL_GPIO_Init
 465              	.LVL14:
 294:Core/Src/gpio.c **** 
 295:Core/Src/gpio.c ****   /*Configure GPIO pin : PtPin */
 296:Core/Src/gpio.c ****   GPIO_InitStruct.Pin = ARDUINO_PWM_D9_Pin;
 466              		.loc 1 296 3 view .LVU180
 467              		.loc 1 296 23 is_stmt 0 view .LVU181
 468 0204 4FF40043 		mov	r3, #32768
 469 0208 0B93     		str	r3, [sp, #44]
 297:Core/Src/gpio.c ****   GPIO_InitStruct.Mode = GPIO_MODE_AF_PP;
 470              		.loc 1 297 3 is_stmt 1 view .LVU182
 471              		.loc 1 297 24 is_stmt 0 view .LVU183
 472 020a 0C95     		str	r5, [sp, #48]
 298:Core/Src/gpio.c ****   GPIO_InitStruct.Pull = GPIO_NOPULL;
 473              		.loc 1 298 3 is_stmt 1 view .LVU184
 474              		.loc 1 298 24 is_stmt 0 view .LVU185
 475 020c 0D94     		str	r4, [sp, #52]
 299:Core/Src/gpio.c ****   GPIO_InitStruct.Speed = GPIO_SPEED_FREQ_LOW;
 476              		.loc 1 299 3 is_stmt 1 view .LVU186
 477              		.loc 1 299 25 is_stmt 0 view .LVU187
 478 020e 0E94     		str	r4, [sp, #56]
 300:Core/Src/gpio.c ****   GPIO_InitStruct.Alternate = GPIO_AF1_TIM2;
 479              		.loc 1 300 3 is_stmt 1 view .LVU188
 480              		.loc 1 300 29 is_stmt 0 view .LVU189
 481 0210 0127     		movs	r7, #1
 482 0212 0F97     		str	r7, [sp, #60]
 301:Core/Src/gpio.c ****   HAL_GPIO_Init(ARDUINO_PWM_D9_GPIO_Port, &GPIO_InitStruct);
 483              		.loc 1 301 3 is_stmt 1 view .LVU190
 484 0214 0BA9     		add	r1, sp, #44
 485 0216 3148     		ldr	r0, .L3+28
 486 0218 FFF7FEFF 		bl	HAL_GPIO_Init
 487              	.LVL15:
 302:Core/Src/gpio.c **** 
 303:Core/Src/gpio.c ****   /*Configure GPIO pins : PEPin PEPin */
 304:Core/Src/gpio.c ****   GPIO_InitStruct.Pin = DCMI_D6_Pin|DCMI_D7_Pin;
 488              		.loc 1 304 3 view .LVU191
 489              		.loc 1 304 23 is_stmt 0 view .LVU192
 490 021c 6023     		movs	r3, #96
 491 021e 0B93     		str	r3, [sp, #44]
 305:Core/Src/gpio.c ****   GPIO_InitStruct.Mode = GPIO_MODE_AF_PP;
 492              		.loc 1 305 3 is_stmt 1 view .LVU193
 493              		.loc 1 305 24 is_stmt 0 view .LVU194
 494 0220 0C95     		str	r5, [sp, #48]
ARM GAS  C:\Users\billa\AppData\Local\Temp\ccRGzkBf.s 			page 15


 306:Core/Src/gpio.c ****   GPIO_InitStruct.Pull = GPIO_NOPULL;
 495              		.loc 1 306 3 is_stmt 1 view .LVU195
 496              		.loc 1 306 24 is_stmt 0 view .LVU196
 497 0222 0D94     		str	r4, [sp, #52]
 307:Core/Src/gpio.c ****   GPIO_InitStruct.Speed = GPIO_SPEED_FREQ_LOW;
 498              		.loc 1 307 3 is_stmt 1 view .LVU197
 499              		.loc 1 307 25 is_stmt 0 view .LVU198
 500 0224 0E94     		str	r4, [sp, #56]
 308:Core/Src/gpio.c ****   GPIO_InitStruct.Alternate = GPIO_AF13_DCMI;
 501              		.loc 1 308 3 is_stmt 1 view .LVU199
 502              		.loc 1 308 29 is_stmt 0 view .LVU200
 503 0226 0D23     		movs	r3, #13
 504 0228 0F93     		str	r3, [sp, #60]
 309:Core/Src/gpio.c ****   HAL_GPIO_Init(GPIOE, &GPIO_InitStruct);
 505              		.loc 1 309 3 is_stmt 1 view .LVU201
 506 022a 0BA9     		add	r1, sp, #44
 507 022c 5046     		mov	r0, r10
 508 022e FFF7FEFF 		bl	HAL_GPIO_Init
 509              	.LVL16:
 310:Core/Src/gpio.c **** 
 311:Core/Src/gpio.c ****   /*Configure GPIO pin : PtPin */
 312:Core/Src/gpio.c ****   GPIO_InitStruct.Pin = QSPI_NCS_Pin;
 510              		.loc 1 312 3 view .LVU202
 511              		.loc 1 312 23 is_stmt 0 view .LVU203
 512 0232 4023     		movs	r3, #64
 513 0234 0B93     		str	r3, [sp, #44]
 313:Core/Src/gpio.c ****   GPIO_InitStruct.Mode = GPIO_MODE_AF_PP;
 514              		.loc 1 313 3 is_stmt 1 view .LVU204
 515              		.loc 1 313 24 is_stmt 0 view .LVU205
 516 0236 0C95     		str	r5, [sp, #48]
 314:Core/Src/gpio.c ****   GPIO_InitStruct.Pull = GPIO_NOPULL;
 517              		.loc 1 314 3 is_stmt 1 view .LVU206
 518              		.loc 1 314 24 is_stmt 0 view .LVU207
 519 0238 0D94     		str	r4, [sp, #52]
 315:Core/Src/gpio.c ****   GPIO_InitStruct.Speed = GPIO_SPEED_FREQ_VERY_HIGH;
 520              		.loc 1 315 3 is_stmt 1 view .LVU208
 521              		.loc 1 315 25 is_stmt 0 view .LVU209
 522 023a 0E96     		str	r6, [sp, #56]
 316:Core/Src/gpio.c ****   GPIO_InitStruct.Alternate = GPIO_AF10_QUADSPI;
 523              		.loc 1 316 3 is_stmt 1 view .LVU210
 524              		.loc 1 316 29 is_stmt 0 view .LVU211
 525 023c CDF83CB0 		str	fp, [sp, #60]
 317:Core/Src/gpio.c ****   HAL_GPIO_Init(QSPI_NCS_GPIO_Port, &GPIO_InitStruct);
 526              		.loc 1 317 3 is_stmt 1 view .LVU212
 527 0240 0BA9     		add	r1, sp, #44
 528 0242 2448     		ldr	r0, .L3+20
 529 0244 FFF7FEFF 		bl	HAL_GPIO_Init
 530              	.LVL17:
 318:Core/Src/gpio.c **** 
 319:Core/Src/gpio.c ****   /*Configure GPIO pins : PGPin PGPin PGPin PGPin
 320:Core/Src/gpio.c ****                            PGPin PGPin */
 321:Core/Src/gpio.c ****   GPIO_InitStruct.Pin = FMC_SDNCAS_Pin|FMC_SDCLK_Pin|FMC_A11_Pin|FMC_A10_Pin
 531              		.loc 1 321 3 view .LVU213
 532              		.loc 1 321 23 is_stmt 0 view .LVU214
 533 0248 48F23313 		movw	r3, #33075
 534 024c 0B93     		str	r3, [sp, #44]
 322:Core/Src/gpio.c ****                           |FMC_BA1_Pin|FMC_BA0_Pin;
ARM GAS  C:\Users\billa\AppData\Local\Temp\ccRGzkBf.s 			page 16


 323:Core/Src/gpio.c ****   GPIO_InitStruct.Mode = GPIO_MODE_AF_PP;
 535              		.loc 1 323 3 is_stmt 1 view .LVU215
 536              		.loc 1 323 24 is_stmt 0 view .LVU216
 537 024e 0C95     		str	r5, [sp, #48]
 324:Core/Src/gpio.c ****   GPIO_InitStruct.Pull = GPIO_NOPULL;
 538              		.loc 1 324 3 is_stmt 1 view .LVU217
 539              		.loc 1 324 24 is_stmt 0 view .LVU218
 540 0250 0D94     		str	r4, [sp, #52]
 325:Core/Src/gpio.c ****   GPIO_InitStruct.Speed = GPIO_SPEED_FREQ_VERY_HIGH;
 541              		.loc 1 325 3 is_stmt 1 view .LVU219
 542              		.loc 1 325 25 is_stmt 0 view .LVU220
 543 0252 0E96     		str	r6, [sp, #56]
 326:Core/Src/gpio.c ****   GPIO_InitStruct.Alternate = GPIO_AF12_FMC;
 544              		.loc 1 326 3 is_stmt 1 view .LVU221
 545              		.loc 1 326 29 is_stmt 0 view .LVU222
 546 0254 CDF83C90 		str	r9, [sp, #60]
 327:Core/Src/gpio.c ****   HAL_GPIO_Init(GPIOG, &GPIO_InitStruct);
 547              		.loc 1 327 3 is_stmt 1 view .LVU223
 548 0258 0BA9     		add	r1, sp, #44
 549 025a 1D48     		ldr	r0, .L3+16
 550 025c FFF7FEFF 		bl	HAL_GPIO_Init
 551              	.LVL18:
 328:Core/Src/gpio.c **** 
 329:Core/Src/gpio.c ****   /*Configure GPIO pins : PJPin PJPin PJPin PJPin
 330:Core/Src/gpio.c ****                            PJPin PJPin PJPin PJPin
 331:Core/Src/gpio.c ****                            PJPin PJPin PJPin PJPin
 332:Core/Src/gpio.c ****                            PJPin PJPin PJPin */
 333:Core/Src/gpio.c ****   GPIO_InitStruct.Pin = LCD_B1_Pin|LCD_B2_Pin|LCD_B3_Pin|LCD_G4_Pin
 552              		.loc 1 333 3 view .LVU224
 553              		.loc 1 333 23 is_stmt 0 view .LVU225
 554 0260 4EF6FF73 		movw	r3, #61439
 555 0264 0B93     		str	r3, [sp, #44]
 334:Core/Src/gpio.c ****                           |LCD_G1_Pin|LCD_G3_Pin|LCD_G0_Pin|LCD_G2_Pin
 335:Core/Src/gpio.c ****                           |LCD_R7_Pin|LCD_R5_Pin|LCD_R6_Pin|LCD_R4_Pin
 336:Core/Src/gpio.c ****                           |LCD_R3_Pin|LCD_R1_Pin|LCD_R2_Pin;
 337:Core/Src/gpio.c ****   GPIO_InitStruct.Mode = GPIO_MODE_AF_PP;
 556              		.loc 1 337 3 is_stmt 1 view .LVU226
 557              		.loc 1 337 24 is_stmt 0 view .LVU227
 558 0266 0C95     		str	r5, [sp, #48]
 338:Core/Src/gpio.c ****   GPIO_InitStruct.Pull = GPIO_NOPULL;
 559              		.loc 1 338 3 is_stmt 1 view .LVU228
 560              		.loc 1 338 24 is_stmt 0 view .LVU229
 561 0268 0D94     		str	r4, [sp, #52]
 339:Core/Src/gpio.c ****   GPIO_InitStruct.Speed = GPIO_SPEED_FREQ_LOW;
 562              		.loc 1 339 3 is_stmt 1 view .LVU230
 563              		.loc 1 339 25 is_stmt 0 view .LVU231
 564 026a 0E94     		str	r4, [sp, #56]
 340:Core/Src/gpio.c ****   GPIO_InitStruct.Alternate = GPIO_AF14_LTDC;
 565              		.loc 1 340 3 is_stmt 1 view .LVU232
 566              		.loc 1 340 29 is_stmt 0 view .LVU233
 567 026c 0E23     		movs	r3, #14
 568 026e 0F93     		str	r3, [sp, #60]
 341:Core/Src/gpio.c ****   HAL_GPIO_Init(GPIOJ, &GPIO_InitStruct);
 569              		.loc 1 341 3 is_stmt 1 view .LVU234
 570 0270 0BA9     		add	r1, sp, #44
 571 0272 1B48     		ldr	r0, .L3+32
 572 0274 FFF7FEFF 		bl	HAL_GPIO_Init
ARM GAS  C:\Users\billa\AppData\Local\Temp\ccRGzkBf.s 			page 17


 573              	.LVL19:
 342:Core/Src/gpio.c **** 
 343:Core/Src/gpio.c ****   /*Configure GPIO pin : PtPin */
 344:Core/Src/gpio.c ****   GPIO_InitStruct.Pin = OTG_FS_VBUS_Pin;
 574              		.loc 1 344 3 view .LVU235
 575              		.loc 1 344 23 is_stmt 0 view .LVU236
 576 0278 4FF4805A 		mov	r10, #4096
 577 027c CDF82CA0 		str	r10, [sp, #44]
 345:Core/Src/gpio.c ****   GPIO_InitStruct.Mode = GPIO_MODE_INPUT;
 578              		.loc 1 345 3 is_stmt 1 view .LVU237
 579              		.loc 1 345 24 is_stmt 0 view .LVU238
 580 0280 0C94     		str	r4, [sp, #48]
 346:Core/Src/gpio.c ****   GPIO_InitStruct.Pull = GPIO_NOPULL;
 581              		.loc 1 346 3 is_stmt 1 view .LVU239
 582              		.loc 1 346 24 is_stmt 0 view .LVU240
 583 0282 0D94     		str	r4, [sp, #52]
 347:Core/Src/gpio.c ****   HAL_GPIO_Init(OTG_FS_VBUS_GPIO_Port, &GPIO_InitStruct);
 584              		.loc 1 347 3 is_stmt 1 view .LVU241
 585 0284 0BA9     		add	r1, sp, #44
 586 0286 1648     		ldr	r0, .L3+32
 587 0288 FFF7FEFF 		bl	HAL_GPIO_Init
 588              	.LVL20:
 348:Core/Src/gpio.c **** 
 349:Core/Src/gpio.c ****   /*Configure GPIO pin : PtPin */
 350:Core/Src/gpio.c ****   GPIO_InitStruct.Pin = Audio_INT_Pin;
 589              		.loc 1 350 3 view .LVU242
 590              		.loc 1 350 23 is_stmt 0 view .LVU243
 591 028c 4023     		movs	r3, #64
 592 028e 0B93     		str	r3, [sp, #44]
 351:Core/Src/gpio.c ****   GPIO_InitStruct.Mode = GPIO_MODE_EVT_RISING;
 593              		.loc 1 351 3 is_stmt 1 view .LVU244
 594              		.loc 1 351 24 is_stmt 0 view .LVU245
 595 0290 4FF49013 		mov	r3, #1179648
 596 0294 0C93     		str	r3, [sp, #48]
 352:Core/Src/gpio.c ****   GPIO_InitStruct.Pull = GPIO_NOPULL;
 597              		.loc 1 352 3 is_stmt 1 view .LVU246
 598              		.loc 1 352 24 is_stmt 0 view .LVU247
 599 0296 0D94     		str	r4, [sp, #52]
 353:Core/Src/gpio.c ****   HAL_GPIO_Init(Audio_INT_GPIO_Port, &GPIO_InitStruct);
 600              		.loc 1 353 3 is_stmt 1 view .LVU248
 601 0298 0BA9     		add	r1, sp, #44
 602 029a 4046     		mov	r0, r8
 603 029c FFF7FEFF 		bl	HAL_GPIO_Init
 604              	.LVL21:
 354:Core/Src/gpio.c **** 
 355:Core/Src/gpio.c ****   /*Configure GPIO pins : PDPin PDPin PDPin PDPin
 356:Core/Src/gpio.c ****                            PDPin PDPin PDPin */
 357:Core/Src/gpio.c ****   GPIO_InitStruct.Pin = FMC_D2_Pin|FMC_D3_Pin|FMC_D1_Pin|FMC_D15_Pin
 605              		.loc 1 357 3 view .LVU249
 606              		.loc 1 357 23 is_stmt 0 view .LVU250
 607 02a0 4CF20373 		movw	r3, #50947
 608 02a4 0B93     		str	r3, [sp, #44]
 358:Core/Src/gpio.c ****                           |FMC_D0_Pin|FMC_D14_Pin|FMC_D13_Pin;
 359:Core/Src/gpio.c ****   GPIO_InitStruct.Mode = GPIO_MODE_AF_PP;
 609              		.loc 1 359 3 is_stmt 1 view .LVU251
 610              		.loc 1 359 24 is_stmt 0 view .LVU252
 611 02a6 0C95     		str	r5, [sp, #48]
ARM GAS  C:\Users\billa\AppData\Local\Temp\ccRGzkBf.s 			page 18


 360:Core/Src/gpio.c ****   GPIO_InitStruct.Pull = GPIO_NOPULL;
 612              		.loc 1 360 3 is_stmt 1 view .LVU253
 613              		.loc 1 360 24 is_stmt 0 view .LVU254
 614 02a8 0D94     		str	r4, [sp, #52]
 361:Core/Src/gpio.c ****   GPIO_InitStruct.Speed = GPIO_SPEED_FREQ_VERY_HIGH;
 615              		.loc 1 361 3 is_stmt 1 view .LVU255
 616              		.loc 1 361 25 is_stmt 0 view .LVU256
 617 02aa 0E96     		str	r6, [sp, #56]
 362:Core/Src/gpio.c ****   GPIO_InitStruct.Alternate = GPIO_AF12_FMC;
 618              		.loc 1 362 3 is_stmt 1 view .LVU257
 619              		.loc 1 362 29 is_stmt 0 view .LVU258
 620 02ac CDF83C90 		str	r9, [sp, #60]
 363:Core/Src/gpio.c ****   HAL_GPIO_Init(GPIOD, &GPIO_InitStruct);
 621              		.loc 1 363 3 is_stmt 1 view .LVU259
 622 02b0 0BA9     		add	r1, sp, #44
 623 02b2 4046     		mov	r0, r8
 624 02b4 FFF7FEFF 		bl	HAL_GPIO_Init
 625              	.LVL22:
 364:Core/Src/gpio.c **** 
 365:Core/Src/gpio.c ****   /*Configure GPIO pins : PAPin PAPin PAPin */
 366:Core/Src/gpio.c ****   GPIO_InitStruct.Pin = OTG_FS_P_Pin|OTG_FS_N_Pin|OTG_FS_ID_Pin;
 626              		.loc 1 366 3 view .LVU260
 627              		.loc 1 366 23 is_stmt 0 view .LVU261
 628 02b8 4FF4E053 		mov	r3, #7168
 629 02bc 0B93     		str	r3, [sp, #44]
 630 02be 15E0     		b	.L4
 631              	.L5:
 632              		.align	2
 633              	.L3:
 634 02c0 00380240 		.word	1073887232
 635 02c4 00200240 		.word	1073881088
 636 02c8 00280240 		.word	1073883136
 637 02cc 001C0240 		.word	1073880064
 638 02d0 00180240 		.word	1073879040
 639 02d4 00040240 		.word	1073873920
 640 02d8 00080240 		.word	1073874944
 641 02dc 00000240 		.word	1073872896
 642 02e0 00240240 		.word	1073882112
 643 02e4 000C0240 		.word	1073875968
 644 02e8 00100240 		.word	1073876992
 645              	.L4:
 367:Core/Src/gpio.c ****   GPIO_InitStruct.Mode = GPIO_MODE_AF_PP;
 646              		.loc 1 367 3 is_stmt 1 view .LVU262
 647              		.loc 1 367 24 is_stmt 0 view .LVU263
 648 02ec 0C95     		str	r5, [sp, #48]
 368:Core/Src/gpio.c ****   GPIO_InitStruct.Pull = GPIO_NOPULL;
 649              		.loc 1 368 3 is_stmt 1 view .LVU264
 650              		.loc 1 368 24 is_stmt 0 view .LVU265
 651 02ee 0D94     		str	r4, [sp, #52]
 369:Core/Src/gpio.c ****   GPIO_InitStruct.Speed = GPIO_SPEED_FREQ_VERY_HIGH;
 652              		.loc 1 369 3 is_stmt 1 view .LVU266
 653              		.loc 1 369 25 is_stmt 0 view .LVU267
 654 02f0 0E96     		str	r6, [sp, #56]
 370:Core/Src/gpio.c ****   GPIO_InitStruct.Alternate = GPIO_AF10_OTG_FS;
 655              		.loc 1 370 3 is_stmt 1 view .LVU268
 656              		.loc 1 370 29 is_stmt 0 view .LVU269
 657 02f2 CDF83CB0 		str	fp, [sp, #60]
ARM GAS  C:\Users\billa\AppData\Local\Temp\ccRGzkBf.s 			page 19


 371:Core/Src/gpio.c ****   HAL_GPIO_Init(GPIOA, &GPIO_InitStruct);
 658              		.loc 1 371 3 is_stmt 1 view .LVU270
 659 02f6 0BA9     		add	r1, sp, #44
 660 02f8 A248     		ldr	r0, .L6
 661 02fa FFF7FEFF 		bl	HAL_GPIO_Init
 662              	.LVL23:
 372:Core/Src/gpio.c **** 
 373:Core/Src/gpio.c ****   /*Configure GPIO pins : PIPin PIPin PIPin PIPin */
 374:Core/Src/gpio.c ****   GPIO_InitStruct.Pin = SAI2_MCLKA_Pin|SAI2_SCKA_Pin|SAI2_FSA_Pin|SAI2_SDA_Pin;
 663              		.loc 1 374 3 view .LVU271
 664              		.loc 1 374 23 is_stmt 0 view .LVU272
 665 02fe F023     		movs	r3, #240
 666 0300 0B93     		str	r3, [sp, #44]
 375:Core/Src/gpio.c ****   GPIO_InitStruct.Mode = GPIO_MODE_AF_PP;
 667              		.loc 1 375 3 is_stmt 1 view .LVU273
 668              		.loc 1 375 24 is_stmt 0 view .LVU274
 669 0302 0C95     		str	r5, [sp, #48]
 376:Core/Src/gpio.c ****   GPIO_InitStruct.Pull = GPIO_NOPULL;
 670              		.loc 1 376 3 is_stmt 1 view .LVU275
 671              		.loc 1 376 24 is_stmt 0 view .LVU276
 672 0304 0D94     		str	r4, [sp, #52]
 377:Core/Src/gpio.c ****   GPIO_InitStruct.Speed = GPIO_SPEED_FREQ_LOW;
 673              		.loc 1 377 3 is_stmt 1 view .LVU277
 674              		.loc 1 377 25 is_stmt 0 view .LVU278
 675 0306 0E94     		str	r4, [sp, #56]
 378:Core/Src/gpio.c ****   GPIO_InitStruct.Alternate = GPIO_AF10_SAI2;
 676              		.loc 1 378 3 is_stmt 1 view .LVU279
 677              		.loc 1 378 29 is_stmt 0 view .LVU280
 678 0308 CDF83CB0 		str	fp, [sp, #60]
 379:Core/Src/gpio.c ****   HAL_GPIO_Init(GPIOI, &GPIO_InitStruct);
 679              		.loc 1 379 3 is_stmt 1 view .LVU281
 680 030c 0BA9     		add	r1, sp, #44
 681 030e 9E48     		ldr	r0, .L6+4
 682 0310 FFF7FEFF 		bl	HAL_GPIO_Init
 683              	.LVL24:
 380:Core/Src/gpio.c **** 
 381:Core/Src/gpio.c ****   /*Configure GPIO pins : PKPin PKPin PKPin PKPin
 382:Core/Src/gpio.c ****                            PKPin PKPin PKPin */
 383:Core/Src/gpio.c ****   GPIO_InitStruct.Pin = LCD_DE_Pin|LCD_B7_Pin|LCD_B6_Pin|LCD_B5_Pin
 684              		.loc 1 383 3 view .LVU282
 685              		.loc 1 383 23 is_stmt 0 view .LVU283
 686 0314 F723     		movs	r3, #247
 687 0316 0B93     		str	r3, [sp, #44]
 384:Core/Src/gpio.c ****                           |LCD_G6_Pin|LCD_G7_Pin|LCD_G5_Pin;
 385:Core/Src/gpio.c ****   GPIO_InitStruct.Mode = GPIO_MODE_AF_PP;
 688              		.loc 1 385 3 is_stmt 1 view .LVU284
 689              		.loc 1 385 24 is_stmt 0 view .LVU285
 690 0318 0C95     		str	r5, [sp, #48]
 386:Core/Src/gpio.c ****   GPIO_InitStruct.Pull = GPIO_NOPULL;
 691              		.loc 1 386 3 is_stmt 1 view .LVU286
 692              		.loc 1 386 24 is_stmt 0 view .LVU287
 693 031a 0D94     		str	r4, [sp, #52]
 387:Core/Src/gpio.c ****   GPIO_InitStruct.Speed = GPIO_SPEED_FREQ_LOW;
 694              		.loc 1 387 3 is_stmt 1 view .LVU288
 695              		.loc 1 387 25 is_stmt 0 view .LVU289
 696 031c 0E94     		str	r4, [sp, #56]
 388:Core/Src/gpio.c ****   GPIO_InitStruct.Alternate = GPIO_AF14_LTDC;
ARM GAS  C:\Users\billa\AppData\Local\Temp\ccRGzkBf.s 			page 20


 697              		.loc 1 388 3 is_stmt 1 view .LVU290
 698              		.loc 1 388 29 is_stmt 0 view .LVU291
 699 031e 0E23     		movs	r3, #14
 700 0320 0F93     		str	r3, [sp, #60]
 389:Core/Src/gpio.c ****   HAL_GPIO_Init(GPIOK, &GPIO_InitStruct);
 701              		.loc 1 389 3 is_stmt 1 view .LVU292
 702 0322 0BA9     		add	r1, sp, #44
 703 0324 9948     		ldr	r0, .L6+8
 704 0326 FFF7FEFF 		bl	HAL_GPIO_Init
 705              	.LVL25:
 390:Core/Src/gpio.c **** 
 391:Core/Src/gpio.c ****   /*Configure GPIO pin : PtPin */
 392:Core/Src/gpio.c ****   GPIO_InitStruct.Pin = LCD_B4_Pin;
 706              		.loc 1 392 3 view .LVU293
 707              		.loc 1 392 23 is_stmt 0 view .LVU294
 708 032a CDF82CA0 		str	r10, [sp, #44]
 393:Core/Src/gpio.c ****   GPIO_InitStruct.Mode = GPIO_MODE_AF_PP;
 709              		.loc 1 393 3 is_stmt 1 view .LVU295
 710              		.loc 1 393 24 is_stmt 0 view .LVU296
 711 032e 0C95     		str	r5, [sp, #48]
 394:Core/Src/gpio.c ****   GPIO_InitStruct.Pull = GPIO_NOPULL;
 712              		.loc 1 394 3 is_stmt 1 view .LVU297
 713              		.loc 1 394 24 is_stmt 0 view .LVU298
 714 0330 0D94     		str	r4, [sp, #52]
 395:Core/Src/gpio.c ****   GPIO_InitStruct.Speed = GPIO_SPEED_FREQ_LOW;
 715              		.loc 1 395 3 is_stmt 1 view .LVU299
 716              		.loc 1 395 25 is_stmt 0 view .LVU300
 717 0332 0E94     		str	r4, [sp, #56]
 396:Core/Src/gpio.c ****   GPIO_InitStruct.Alternate = GPIO_AF9_LTDC;
 718              		.loc 1 396 3 is_stmt 1 view .LVU301
 719              		.loc 1 396 29 is_stmt 0 view .LVU302
 720 0334 0923     		movs	r3, #9
 721 0336 0F93     		str	r3, [sp, #60]
 397:Core/Src/gpio.c ****   HAL_GPIO_Init(LCD_B4_GPIO_Port, &GPIO_InitStruct);
 722              		.loc 1 397 3 is_stmt 1 view .LVU303
 723 0338 0BA9     		add	r1, sp, #44
 724 033a 9548     		ldr	r0, .L6+12
 725 033c FFF7FEFF 		bl	HAL_GPIO_Init
 726              	.LVL26:
 398:Core/Src/gpio.c **** 
 399:Core/Src/gpio.c ****   /*Configure GPIO pin : PtPin */
 400:Core/Src/gpio.c ****   GPIO_InitStruct.Pin = SAI2_SDB_Pin;
 727              		.loc 1 400 3 view .LVU304
 728              		.loc 1 400 23 is_stmt 0 view .LVU305
 729 0340 4FF48063 		mov	r3, #1024
 730 0344 0B93     		str	r3, [sp, #44]
 401:Core/Src/gpio.c ****   GPIO_InitStruct.Mode = GPIO_MODE_AF_PP;
 731              		.loc 1 401 3 is_stmt 1 view .LVU306
 732              		.loc 1 401 24 is_stmt 0 view .LVU307
 733 0346 0C95     		str	r5, [sp, #48]
 402:Core/Src/gpio.c ****   GPIO_InitStruct.Pull = GPIO_NOPULL;
 734              		.loc 1 402 3 is_stmt 1 view .LVU308
 735              		.loc 1 402 24 is_stmt 0 view .LVU309
 736 0348 0D94     		str	r4, [sp, #52]
 403:Core/Src/gpio.c ****   GPIO_InitStruct.Speed = GPIO_SPEED_FREQ_LOW;
 737              		.loc 1 403 3 is_stmt 1 view .LVU310
 738              		.loc 1 403 25 is_stmt 0 view .LVU311
ARM GAS  C:\Users\billa\AppData\Local\Temp\ccRGzkBf.s 			page 21


 739 034a 0E94     		str	r4, [sp, #56]
 404:Core/Src/gpio.c ****   GPIO_InitStruct.Alternate = GPIO_AF10_SAI2;
 740              		.loc 1 404 3 is_stmt 1 view .LVU312
 741              		.loc 1 404 29 is_stmt 0 view .LVU313
 742 034c CDF83CB0 		str	fp, [sp, #60]
 405:Core/Src/gpio.c ****   HAL_GPIO_Init(SAI2_SDB_GPIO_Port, &GPIO_InitStruct);
 743              		.loc 1 405 3 is_stmt 1 view .LVU314
 744 0350 0BA9     		add	r1, sp, #44
 745 0352 8F48     		ldr	r0, .L6+12
 746 0354 FFF7FEFF 		bl	HAL_GPIO_Init
 747              	.LVL27:
 406:Core/Src/gpio.c **** 
 407:Core/Src/gpio.c ****   /*Configure GPIO pin : PtPin */
 408:Core/Src/gpio.c ****   GPIO_InitStruct.Pin = OTG_FS_PowerSwitchOn_Pin;
 748              		.loc 1 408 3 view .LVU315
 749              		.loc 1 408 23 is_stmt 0 view .LVU316
 750 0358 2023     		movs	r3, #32
 751 035a 0B93     		str	r3, [sp, #44]
 409:Core/Src/gpio.c ****   GPIO_InitStruct.Mode = GPIO_MODE_OUTPUT_PP;
 752              		.loc 1 409 3 is_stmt 1 view .LVU317
 753              		.loc 1 409 24 is_stmt 0 view .LVU318
 754 035c 0C97     		str	r7, [sp, #48]
 410:Core/Src/gpio.c ****   GPIO_InitStruct.Pull = GPIO_NOPULL;
 755              		.loc 1 410 3 is_stmt 1 view .LVU319
 756              		.loc 1 410 24 is_stmt 0 view .LVU320
 757 035e 0D94     		str	r4, [sp, #52]
 411:Core/Src/gpio.c ****   GPIO_InitStruct.Speed = GPIO_SPEED_FREQ_LOW;
 758              		.loc 1 411 3 is_stmt 1 view .LVU321
 759              		.loc 1 411 25 is_stmt 0 view .LVU322
 760 0360 0E94     		str	r4, [sp, #56]
 412:Core/Src/gpio.c ****   HAL_GPIO_Init(OTG_FS_PowerSwitchOn_GPIO_Port, &GPIO_InitStruct);
 761              		.loc 1 412 3 is_stmt 1 view .LVU323
 762 0362 0BA9     		add	r1, sp, #44
 763 0364 4046     		mov	r0, r8
 764 0366 FFF7FEFF 		bl	HAL_GPIO_Init
 765              	.LVL28:
 413:Core/Src/gpio.c **** 
 414:Core/Src/gpio.c ****   /*Configure GPIO pin : PtPin */
 415:Core/Src/gpio.c ****   GPIO_InitStruct.Pin = DCMI_D5_Pin;
 766              		.loc 1 415 3 view .LVU324
 767              		.loc 1 415 23 is_stmt 0 view .LVU325
 768 036a 0823     		movs	r3, #8
 769 036c 0B93     		str	r3, [sp, #44]
 416:Core/Src/gpio.c ****   GPIO_InitStruct.Mode = GPIO_MODE_AF_PP;
 770              		.loc 1 416 3 is_stmt 1 view .LVU326
 771              		.loc 1 416 24 is_stmt 0 view .LVU327
 772 036e 0C95     		str	r5, [sp, #48]
 417:Core/Src/gpio.c ****   GPIO_InitStruct.Pull = GPIO_NOPULL;
 773              		.loc 1 417 3 is_stmt 1 view .LVU328
 774              		.loc 1 417 24 is_stmt 0 view .LVU329
 775 0370 0D94     		str	r4, [sp, #52]
 418:Core/Src/gpio.c ****   GPIO_InitStruct.Speed = GPIO_SPEED_FREQ_LOW;
 776              		.loc 1 418 3 is_stmt 1 view .LVU330
 777              		.loc 1 418 25 is_stmt 0 view .LVU331
 778 0372 0E94     		str	r4, [sp, #56]
 419:Core/Src/gpio.c ****   GPIO_InitStruct.Alternate = GPIO_AF13_DCMI;
 779              		.loc 1 419 3 is_stmt 1 view .LVU332
ARM GAS  C:\Users\billa\AppData\Local\Temp\ccRGzkBf.s 			page 22


 780              		.loc 1 419 29 is_stmt 0 view .LVU333
 781 0374 0D23     		movs	r3, #13
 782 0376 0F93     		str	r3, [sp, #60]
 420:Core/Src/gpio.c ****   HAL_GPIO_Init(DCMI_D5_GPIO_Port, &GPIO_InitStruct);
 783              		.loc 1 420 3 is_stmt 1 view .LVU334
 784 0378 0BA9     		add	r1, sp, #44
 785 037a 4046     		mov	r0, r8
 786 037c FFF7FEFF 		bl	HAL_GPIO_Init
 787              	.LVL29:
 421:Core/Src/gpio.c **** 
 422:Core/Src/gpio.c ****   /*Configure GPIO pins : PIPin PIPin PIPin */
 423:Core/Src/gpio.c ****   GPIO_InitStruct.Pin = ARDUINO_D7_Pin|ARDUINO_D8_Pin|LCD_DISP_Pin;
 788              		.loc 1 423 3 view .LVU335
 789              		.loc 1 423 23 is_stmt 0 view .LVU336
 790 0380 41F20C03 		movw	r3, #4108
 791 0384 0B93     		str	r3, [sp, #44]
 424:Core/Src/gpio.c ****   GPIO_InitStruct.Mode = GPIO_MODE_OUTPUT_PP;
 792              		.loc 1 424 3 is_stmt 1 view .LVU337
 793              		.loc 1 424 24 is_stmt 0 view .LVU338
 794 0386 0C97     		str	r7, [sp, #48]
 425:Core/Src/gpio.c ****   GPIO_InitStruct.Pull = GPIO_NOPULL;
 795              		.loc 1 425 3 is_stmt 1 view .LVU339
 796              		.loc 1 425 24 is_stmt 0 view .LVU340
 797 0388 0D94     		str	r4, [sp, #52]
 426:Core/Src/gpio.c ****   GPIO_InitStruct.Speed = GPIO_SPEED_FREQ_LOW;
 798              		.loc 1 426 3 is_stmt 1 view .LVU341
 799              		.loc 1 426 25 is_stmt 0 view .LVU342
 800 038a 0E94     		str	r4, [sp, #56]
 427:Core/Src/gpio.c ****   HAL_GPIO_Init(GPIOI, &GPIO_InitStruct);
 801              		.loc 1 427 3 is_stmt 1 view .LVU343
 802 038c 0BA9     		add	r1, sp, #44
 803 038e 7E48     		ldr	r0, .L6+4
 804 0390 FFF7FEFF 		bl	HAL_GPIO_Init
 805              	.LVL30:
 428:Core/Src/gpio.c **** 
 429:Core/Src/gpio.c ****   /*Configure GPIO pin : PtPin */
 430:Core/Src/gpio.c ****   GPIO_InitStruct.Pin = uSD_Detect_Pin;
 806              		.loc 1 430 3 view .LVU344
 807              		.loc 1 430 23 is_stmt 0 view .LVU345
 808 0394 4FF4005A 		mov	r10, #8192
 809 0398 CDF82CA0 		str	r10, [sp, #44]
 431:Core/Src/gpio.c ****   GPIO_InitStruct.Mode = GPIO_MODE_INPUT;
 810              		.loc 1 431 3 is_stmt 1 view .LVU346
 811              		.loc 1 431 24 is_stmt 0 view .LVU347
 812 039c 0C94     		str	r4, [sp, #48]
 432:Core/Src/gpio.c ****   GPIO_InitStruct.Pull = GPIO_NOPULL;
 813              		.loc 1 432 3 is_stmt 1 view .LVU348
 814              		.loc 1 432 24 is_stmt 0 view .LVU349
 815 039e 0D94     		str	r4, [sp, #52]
 433:Core/Src/gpio.c ****   HAL_GPIO_Init(uSD_Detect_GPIO_Port, &GPIO_InitStruct);
 816              		.loc 1 433 3 is_stmt 1 view .LVU350
 817 03a0 0BA9     		add	r1, sp, #44
 818 03a2 7C48     		ldr	r0, .L6+16
 819 03a4 FFF7FEFF 		bl	HAL_GPIO_Init
 820              	.LVL31:
 434:Core/Src/gpio.c **** 
 435:Core/Src/gpio.c ****   /*Configure GPIO pins : PFPin PFPin PFPin PFPin
ARM GAS  C:\Users\billa\AppData\Local\Temp\ccRGzkBf.s 			page 23


 436:Core/Src/gpio.c ****                            PFPin PFPin PFPin PFPin
 437:Core/Src/gpio.c ****                            PFPin PFPin PFPin */
 438:Core/Src/gpio.c ****   GPIO_InitStruct.Pin = FMC_A0_Pin|FMC_A1_Pin|FMC_A2_Pin|FMC_A3_Pin
 821              		.loc 1 438 3 view .LVU351
 822              		.loc 1 438 23 is_stmt 0 view .LVU352
 823 03a8 4FF63F03 		movw	r3, #63551
 824 03ac 0B93     		str	r3, [sp, #44]
 439:Core/Src/gpio.c ****                           |FMC_A4_Pin|FMC_A5_Pin|FMC_A6_Pin|FMC_A9_Pin
 440:Core/Src/gpio.c ****                           |FMC_A7_Pin|FMC_A8_Pin|FMC_SDNRAS_Pin;
 441:Core/Src/gpio.c ****   GPIO_InitStruct.Mode = GPIO_MODE_AF_PP;
 825              		.loc 1 441 3 is_stmt 1 view .LVU353
 826              		.loc 1 441 24 is_stmt 0 view .LVU354
 827 03ae 0C95     		str	r5, [sp, #48]
 442:Core/Src/gpio.c ****   GPIO_InitStruct.Pull = GPIO_NOPULL;
 828              		.loc 1 442 3 is_stmt 1 view .LVU355
 829              		.loc 1 442 24 is_stmt 0 view .LVU356
 830 03b0 0D94     		str	r4, [sp, #52]
 443:Core/Src/gpio.c ****   GPIO_InitStruct.Speed = GPIO_SPEED_FREQ_VERY_HIGH;
 831              		.loc 1 443 3 is_stmt 1 view .LVU357
 832              		.loc 1 443 25 is_stmt 0 view .LVU358
 833 03b2 0E96     		str	r6, [sp, #56]
 444:Core/Src/gpio.c ****   GPIO_InitStruct.Alternate = GPIO_AF12_FMC;
 834              		.loc 1 444 3 is_stmt 1 view .LVU359
 835              		.loc 1 444 29 is_stmt 0 view .LVU360
 836 03b4 CDF83C90 		str	r9, [sp, #60]
 445:Core/Src/gpio.c ****   HAL_GPIO_Init(GPIOF, &GPIO_InitStruct);
 837              		.loc 1 445 3 is_stmt 1 view .LVU361
 838 03b8 0BA9     		add	r1, sp, #44
 839 03ba 7748     		ldr	r0, .L6+20
 840 03bc FFF7FEFF 		bl	HAL_GPIO_Init
 841              	.LVL32:
 446:Core/Src/gpio.c **** 
 447:Core/Src/gpio.c ****   /*Configure GPIO pins : PIPin PIPin PIPin PIPin */
 448:Core/Src/gpio.c ****   GPIO_InitStruct.Pin = LCD_HSYNC_Pin|LCD_VSYNC_Pin|LCD_R0_Pin|LCD_CLK_Pin;
 842              		.loc 1 448 3 view .LVU362
 843              		.loc 1 448 23 is_stmt 0 view .LVU363
 844 03c0 4FF44643 		mov	r3, #50688
 845 03c4 0B93     		str	r3, [sp, #44]
 449:Core/Src/gpio.c ****   GPIO_InitStruct.Mode = GPIO_MODE_AF_PP;
 846              		.loc 1 449 3 is_stmt 1 view .LVU364
 847              		.loc 1 449 24 is_stmt 0 view .LVU365
 848 03c6 0C95     		str	r5, [sp, #48]
 450:Core/Src/gpio.c ****   GPIO_InitStruct.Pull = GPIO_NOPULL;
 849              		.loc 1 450 3 is_stmt 1 view .LVU366
 850              		.loc 1 450 24 is_stmt 0 view .LVU367
 851 03c8 0D94     		str	r4, [sp, #52]
 451:Core/Src/gpio.c ****   GPIO_InitStruct.Speed = GPIO_SPEED_FREQ_LOW;
 852              		.loc 1 451 3 is_stmt 1 view .LVU368
 853              		.loc 1 451 25 is_stmt 0 view .LVU369
 854 03ca 0E94     		str	r4, [sp, #56]
 452:Core/Src/gpio.c ****   GPIO_InitStruct.Alternate = GPIO_AF14_LTDC;
 855              		.loc 1 452 3 is_stmt 1 view .LVU370
 856              		.loc 1 452 29 is_stmt 0 view .LVU371
 857 03cc 0E23     		movs	r3, #14
 858 03ce 0F93     		str	r3, [sp, #60]
 453:Core/Src/gpio.c ****   HAL_GPIO_Init(GPIOI, &GPIO_InitStruct);
 859              		.loc 1 453 3 is_stmt 1 view .LVU372
ARM GAS  C:\Users\billa\AppData\Local\Temp\ccRGzkBf.s 			page 24


 860 03d0 0BA9     		add	r1, sp, #44
 861 03d2 6D48     		ldr	r0, .L6+4
 862 03d4 FFF7FEFF 		bl	HAL_GPIO_Init
 863              	.LVL33:
 454:Core/Src/gpio.c **** 
 455:Core/Src/gpio.c ****   /*Configure GPIO pin : PtPin */
 456:Core/Src/gpio.c ****   GPIO_InitStruct.Pin = LCD_BL_CTRL_Pin;
 864              		.loc 1 456 3 view .LVU373
 865              		.loc 1 456 23 is_stmt 0 view .LVU374
 866 03d8 0823     		movs	r3, #8
 867 03da 0B93     		str	r3, [sp, #44]
 457:Core/Src/gpio.c ****   GPIO_InitStruct.Mode = GPIO_MODE_OUTPUT_PP;
 868              		.loc 1 457 3 is_stmt 1 view .LVU375
 869              		.loc 1 457 24 is_stmt 0 view .LVU376
 870 03dc 0C97     		str	r7, [sp, #48]
 458:Core/Src/gpio.c ****   GPIO_InitStruct.Pull = GPIO_NOPULL;
 871              		.loc 1 458 3 is_stmt 1 view .LVU377
 872              		.loc 1 458 24 is_stmt 0 view .LVU378
 873 03de 0D94     		str	r4, [sp, #52]
 459:Core/Src/gpio.c ****   GPIO_InitStruct.Speed = GPIO_SPEED_FREQ_LOW;
 874              		.loc 1 459 3 is_stmt 1 view .LVU379
 875              		.loc 1 459 25 is_stmt 0 view .LVU380
 876 03e0 0E94     		str	r4, [sp, #56]
 460:Core/Src/gpio.c ****   HAL_GPIO_Init(LCD_BL_CTRL_GPIO_Port, &GPIO_InitStruct);
 877              		.loc 1 460 3 is_stmt 1 view .LVU381
 878 03e2 0BA9     		add	r1, sp, #44
 879 03e4 6948     		ldr	r0, .L6+8
 880 03e6 FFF7FEFF 		bl	HAL_GPIO_Init
 881              	.LVL34:
 461:Core/Src/gpio.c **** 
 462:Core/Src/gpio.c ****   /*Configure GPIO pin : PtPin */
 463:Core/Src/gpio.c ****   GPIO_InitStruct.Pin = DCMI_VSYNC_Pin;
 882              		.loc 1 463 3 view .LVU382
 883              		.loc 1 463 23 is_stmt 0 view .LVU383
 884 03ea 4FF40073 		mov	r3, #512
 885 03ee 0B93     		str	r3, [sp, #44]
 464:Core/Src/gpio.c ****   GPIO_InitStruct.Mode = GPIO_MODE_AF_PP;
 886              		.loc 1 464 3 is_stmt 1 view .LVU384
 887              		.loc 1 464 24 is_stmt 0 view .LVU385
 888 03f0 0C95     		str	r5, [sp, #48]
 465:Core/Src/gpio.c ****   GPIO_InitStruct.Pull = GPIO_NOPULL;
 889              		.loc 1 465 3 is_stmt 1 view .LVU386
 890              		.loc 1 465 24 is_stmt 0 view .LVU387
 891 03f2 0D94     		str	r4, [sp, #52]
 466:Core/Src/gpio.c ****   GPIO_InitStruct.Speed = GPIO_SPEED_FREQ_LOW;
 892              		.loc 1 466 3 is_stmt 1 view .LVU388
 893              		.loc 1 466 25 is_stmt 0 view .LVU389
 894 03f4 0E94     		str	r4, [sp, #56]
 467:Core/Src/gpio.c ****   GPIO_InitStruct.Alternate = GPIO_AF13_DCMI;
 895              		.loc 1 467 3 is_stmt 1 view .LVU390
 896              		.loc 1 467 29 is_stmt 0 view .LVU391
 897 03f6 0D23     		movs	r3, #13
 898 03f8 0F93     		str	r3, [sp, #60]
 468:Core/Src/gpio.c ****   HAL_GPIO_Init(DCMI_VSYNC_GPIO_Port, &GPIO_InitStruct);
 899              		.loc 1 468 3 is_stmt 1 view .LVU392
 900 03fa 0BA9     		add	r1, sp, #44
 901 03fc 6448     		ldr	r0, .L6+12
ARM GAS  C:\Users\billa\AppData\Local\Temp\ccRGzkBf.s 			page 25


 902 03fe FFF7FEFF 		bl	HAL_GPIO_Init
 903              	.LVL35:
 469:Core/Src/gpio.c **** 
 470:Core/Src/gpio.c ****   /*Configure GPIO pin : PtPin */
 471:Core/Src/gpio.c ****   GPIO_InitStruct.Pin = OTG_FS_OverCurrent_Pin;
 904              		.loc 1 471 3 view .LVU393
 905              		.loc 1 471 23 is_stmt 0 view .LVU394
 906 0402 1023     		movs	r3, #16
 907 0404 0B93     		str	r3, [sp, #44]
 472:Core/Src/gpio.c ****   GPIO_InitStruct.Mode = GPIO_MODE_INPUT;
 908              		.loc 1 472 3 is_stmt 1 view .LVU395
 909              		.loc 1 472 24 is_stmt 0 view .LVU396
 910 0406 0C94     		str	r4, [sp, #48]
 473:Core/Src/gpio.c ****   GPIO_InitStruct.Pull = GPIO_NOPULL;
 911              		.loc 1 473 3 is_stmt 1 view .LVU397
 912              		.loc 1 473 24 is_stmt 0 view .LVU398
 913 0408 0D94     		str	r4, [sp, #52]
 474:Core/Src/gpio.c ****   HAL_GPIO_Init(OTG_FS_OverCurrent_GPIO_Port, &GPIO_InitStruct);
 914              		.loc 1 474 3 is_stmt 1 view .LVU399
 915 040a 0BA9     		add	r1, sp, #44
 916 040c 4046     		mov	r0, r8
 917 040e FFF7FEFF 		bl	HAL_GPIO_Init
 918              	.LVL36:
 475:Core/Src/gpio.c **** 
 476:Core/Src/gpio.c ****   /*Configure GPIO pin : PtPin */
 477:Core/Src/gpio.c ****   GPIO_InitStruct.Pin = SDMMC_D0_Pin;
 919              		.loc 1 477 3 view .LVU400
 920              		.loc 1 477 23 is_stmt 0 view .LVU401
 921 0412 0423     		movs	r3, #4
 922 0414 0B93     		str	r3, [sp, #44]
 478:Core/Src/gpio.c ****   GPIO_InitStruct.Mode = GPIO_MODE_AF_PP;
 923              		.loc 1 478 3 is_stmt 1 view .LVU402
 924              		.loc 1 478 24 is_stmt 0 view .LVU403
 925 0416 0C95     		str	r5, [sp, #48]
 479:Core/Src/gpio.c ****   GPIO_InitStruct.Pull = GPIO_NOPULL;
 926              		.loc 1 479 3 is_stmt 1 view .LVU404
 927              		.loc 1 479 24 is_stmt 0 view .LVU405
 928 0418 0D94     		str	r4, [sp, #52]
 480:Core/Src/gpio.c ****   GPIO_InitStruct.Speed = GPIO_SPEED_FREQ_VERY_HIGH;
 929              		.loc 1 480 3 is_stmt 1 view .LVU406
 930              		.loc 1 480 25 is_stmt 0 view .LVU407
 931 041a 0E96     		str	r6, [sp, #56]
 481:Core/Src/gpio.c ****   GPIO_InitStruct.Alternate = GPIO_AF12_SDMMC1;
 932              		.loc 1 481 3 is_stmt 1 view .LVU408
 933              		.loc 1 481 29 is_stmt 0 view .LVU409
 934 041c CDF83C90 		str	r9, [sp, #60]
 482:Core/Src/gpio.c ****   HAL_GPIO_Init(SDMMC_D0_GPIO_Port, &GPIO_InitStruct);
 935              		.loc 1 482 3 is_stmt 1 view .LVU410
 936 0420 0BA9     		add	r1, sp, #44
 937 0422 4046     		mov	r0, r8
 938 0424 FFF7FEFF 		bl	HAL_GPIO_Init
 939              	.LVL37:
 483:Core/Src/gpio.c **** 
 484:Core/Src/gpio.c ****   /*Configure GPIO pins : PHPin PHPin */
 485:Core/Src/gpio.c ****   GPIO_InitStruct.Pin = TP3_Pin|NC2_Pin;
 940              		.loc 1 485 3 view .LVU411
 941              		.loc 1 485 23 is_stmt 0 view .LVU412
ARM GAS  C:\Users\billa\AppData\Local\Temp\ccRGzkBf.s 			page 26


 942 0428 48F20403 		movw	r3, #32772
 943 042c 0B93     		str	r3, [sp, #44]
 486:Core/Src/gpio.c ****   GPIO_InitStruct.Mode = GPIO_MODE_INPUT;
 944              		.loc 1 486 3 is_stmt 1 view .LVU413
 945              		.loc 1 486 24 is_stmt 0 view .LVU414
 946 042e 0C94     		str	r4, [sp, #48]
 487:Core/Src/gpio.c ****   GPIO_InitStruct.Pull = GPIO_NOPULL;
 947              		.loc 1 487 3 is_stmt 1 view .LVU415
 948              		.loc 1 487 24 is_stmt 0 view .LVU416
 949 0430 0D94     		str	r4, [sp, #52]
 488:Core/Src/gpio.c ****   HAL_GPIO_Init(GPIOH, &GPIO_InitStruct);
 950              		.loc 1 488 3 is_stmt 1 view .LVU417
 951 0432 0BA9     		add	r1, sp, #44
 952 0434 5948     		ldr	r0, .L6+24
 953 0436 FFF7FEFF 		bl	HAL_GPIO_Init
 954              	.LVL38:
 489:Core/Src/gpio.c **** 
 490:Core/Src/gpio.c ****   /*Configure GPIO pin : PtPin */
 491:Core/Src/gpio.c ****   GPIO_InitStruct.Pin = ARDUINO_SCK_D13_Pin;
 955              		.loc 1 491 3 view .LVU418
 956              		.loc 1 491 23 is_stmt 0 view .LVU419
 957 043a 0B95     		str	r5, [sp, #44]
 492:Core/Src/gpio.c ****   GPIO_InitStruct.Mode = GPIO_MODE_AF_PP;
 958              		.loc 1 492 3 is_stmt 1 view .LVU420
 959              		.loc 1 492 24 is_stmt 0 view .LVU421
 960 043c 0C95     		str	r5, [sp, #48]
 493:Core/Src/gpio.c ****   GPIO_InitStruct.Pull = GPIO_NOPULL;
 961              		.loc 1 493 3 is_stmt 1 view .LVU422
 962              		.loc 1 493 24 is_stmt 0 view .LVU423
 963 043e 0D94     		str	r4, [sp, #52]
 494:Core/Src/gpio.c ****   GPIO_InitStruct.Speed = GPIO_SPEED_FREQ_LOW;
 964              		.loc 1 494 3 is_stmt 1 view .LVU424
 965              		.loc 1 494 25 is_stmt 0 view .LVU425
 966 0440 0E94     		str	r4, [sp, #56]
 495:Core/Src/gpio.c ****   GPIO_InitStruct.Alternate = GPIO_AF5_SPI2;
 967              		.loc 1 495 3 is_stmt 1 view .LVU426
 968              		.loc 1 495 29 is_stmt 0 view .LVU427
 969 0442 0523     		movs	r3, #5
 970 0444 0F93     		str	r3, [sp, #60]
 496:Core/Src/gpio.c ****   HAL_GPIO_Init(ARDUINO_SCK_D13_GPIO_Port, &GPIO_InitStruct);
 971              		.loc 1 496 3 is_stmt 1 view .LVU428
 972 0446 0BA9     		add	r1, sp, #44
 973 0448 4F48     		ldr	r0, .L6+4
 974 044a FFF7FEFF 		bl	HAL_GPIO_Init
 975              	.LVL39:
 497:Core/Src/gpio.c **** 
 498:Core/Src/gpio.c ****   /*Configure GPIO pin : PtPin */
 499:Core/Src/gpio.c ****   GPIO_InitStruct.Pin = DCMI_PWR_EN_Pin;
 976              		.loc 1 499 3 view .LVU429
 977              		.loc 1 499 23 is_stmt 0 view .LVU430
 978 044e CDF82CA0 		str	r10, [sp, #44]
 500:Core/Src/gpio.c ****   GPIO_InitStruct.Mode = GPIO_MODE_OUTPUT_PP;
 979              		.loc 1 500 3 is_stmt 1 view .LVU431
 980              		.loc 1 500 24 is_stmt 0 view .LVU432
 981 0452 0C97     		str	r7, [sp, #48]
 501:Core/Src/gpio.c ****   GPIO_InitStruct.Pull = GPIO_NOPULL;
 982              		.loc 1 501 3 is_stmt 1 view .LVU433
ARM GAS  C:\Users\billa\AppData\Local\Temp\ccRGzkBf.s 			page 27


 983              		.loc 1 501 24 is_stmt 0 view .LVU434
 984 0454 0D94     		str	r4, [sp, #52]
 502:Core/Src/gpio.c ****   GPIO_InitStruct.Speed = GPIO_SPEED_FREQ_LOW;
 985              		.loc 1 502 3 is_stmt 1 view .LVU435
 986              		.loc 1 502 25 is_stmt 0 view .LVU436
 987 0456 0E94     		str	r4, [sp, #56]
 503:Core/Src/gpio.c ****   HAL_GPIO_Init(DCMI_PWR_EN_GPIO_Port, &GPIO_InitStruct);
 988              		.loc 1 503 3 is_stmt 1 view .LVU437
 989 0458 0BA9     		add	r1, sp, #44
 990 045a 5048     		ldr	r0, .L6+24
 991 045c FFF7FEFF 		bl	HAL_GPIO_Init
 992              	.LVL40:
 504:Core/Src/gpio.c **** 
 505:Core/Src/gpio.c ****   /*Configure GPIO pins : PHPin PHPin PHPin PHPin
 506:Core/Src/gpio.c ****                            PHPin */
 507:Core/Src/gpio.c ****   GPIO_InitStruct.Pin = DCMI_D4_Pin|DCMI_D3_Pin|DCMI_D0_Pin|DCMI_D2_Pin
 993              		.loc 1 507 3 view .LVU438
 994              		.loc 1 507 23 is_stmt 0 view .LVU439
 995 0460 4FF4BC43 		mov	r3, #24064
 996 0464 0B93     		str	r3, [sp, #44]
 508:Core/Src/gpio.c ****                           |DCMI_D1_Pin;
 509:Core/Src/gpio.c ****   GPIO_InitStruct.Mode = GPIO_MODE_AF_PP;
 997              		.loc 1 509 3 is_stmt 1 view .LVU440
 998              		.loc 1 509 24 is_stmt 0 view .LVU441
 999 0466 0C95     		str	r5, [sp, #48]
 510:Core/Src/gpio.c ****   GPIO_InitStruct.Pull = GPIO_NOPULL;
 1000              		.loc 1 510 3 is_stmt 1 view .LVU442
 1001              		.loc 1 510 24 is_stmt 0 view .LVU443
 1002 0468 0D94     		str	r4, [sp, #52]
 511:Core/Src/gpio.c ****   GPIO_InitStruct.Speed = GPIO_SPEED_FREQ_LOW;
 1003              		.loc 1 511 3 is_stmt 1 view .LVU444
 1004              		.loc 1 511 25 is_stmt 0 view .LVU445
 1005 046a 0E94     		str	r4, [sp, #56]
 512:Core/Src/gpio.c ****   GPIO_InitStruct.Alternate = GPIO_AF13_DCMI;
 1006              		.loc 1 512 3 is_stmt 1 view .LVU446
 1007              		.loc 1 512 29 is_stmt 0 view .LVU447
 1008 046c 0D23     		movs	r3, #13
 1009 046e 0F93     		str	r3, [sp, #60]
 513:Core/Src/gpio.c ****   HAL_GPIO_Init(GPIOH, &GPIO_InitStruct);
 1010              		.loc 1 513 3 is_stmt 1 view .LVU448
 1011 0470 0BA9     		add	r1, sp, #44
 1012 0472 4A48     		ldr	r0, .L6+24
 1013 0474 FFF7FEFF 		bl	HAL_GPIO_Init
 1014              	.LVL41:
 514:Core/Src/gpio.c **** 
 515:Core/Src/gpio.c ****   /*Configure GPIO pin : PtPin */
 516:Core/Src/gpio.c ****   GPIO_InitStruct.Pin = ARDUINO_PWM_CS_D5_Pin;
 1015              		.loc 1 516 3 view .LVU449
 1016              		.loc 1 516 23 is_stmt 0 view .LVU450
 1017 0478 0B97     		str	r7, [sp, #44]
 517:Core/Src/gpio.c ****   GPIO_InitStruct.Mode = GPIO_MODE_AF_PP;
 1018              		.loc 1 517 3 is_stmt 1 view .LVU451
 1019              		.loc 1 517 24 is_stmt 0 view .LVU452
 1020 047a 0C95     		str	r5, [sp, #48]
 518:Core/Src/gpio.c ****   GPIO_InitStruct.Pull = GPIO_NOPULL;
 1021              		.loc 1 518 3 is_stmt 1 view .LVU453
 1022              		.loc 1 518 24 is_stmt 0 view .LVU454
ARM GAS  C:\Users\billa\AppData\Local\Temp\ccRGzkBf.s 			page 28


 1023 047c 0D94     		str	r4, [sp, #52]
 519:Core/Src/gpio.c ****   GPIO_InitStruct.Speed = GPIO_SPEED_FREQ_LOW;
 1024              		.loc 1 519 3 is_stmt 1 view .LVU455
 1025              		.loc 1 519 25 is_stmt 0 view .LVU456
 1026 047e 0E94     		str	r4, [sp, #56]
 520:Core/Src/gpio.c ****   GPIO_InitStruct.Alternate = GPIO_AF2_TIM5;
 1027              		.loc 1 520 3 is_stmt 1 view .LVU457
 1028              		.loc 1 520 29 is_stmt 0 view .LVU458
 1029 0480 0F95     		str	r5, [sp, #60]
 521:Core/Src/gpio.c ****   HAL_GPIO_Init(ARDUINO_PWM_CS_D5_GPIO_Port, &GPIO_InitStruct);
 1030              		.loc 1 521 3 is_stmt 1 view .LVU459
 1031 0482 0BA9     		add	r1, sp, #44
 1032 0484 4048     		ldr	r0, .L6+4
 1033 0486 FFF7FEFF 		bl	HAL_GPIO_Init
 1034              	.LVL42:
 522:Core/Src/gpio.c **** 
 523:Core/Src/gpio.c ****   /*Configure GPIO pin : PtPin */
 524:Core/Src/gpio.c ****   GPIO_InitStruct.Pin = ARDUINO_PWM_D10_Pin;
 1035              		.loc 1 524 3 view .LVU460
 1036              		.loc 1 524 23 is_stmt 0 view .LVU461
 1037 048a 4FF48073 		mov	r3, #256
 1038 048e 0B93     		str	r3, [sp, #44]
 525:Core/Src/gpio.c ****   GPIO_InitStruct.Mode = GPIO_MODE_AF_PP;
 1039              		.loc 1 525 3 is_stmt 1 view .LVU462
 1040              		.loc 1 525 24 is_stmt 0 view .LVU463
 1041 0490 0C95     		str	r5, [sp, #48]
 526:Core/Src/gpio.c ****   GPIO_InitStruct.Pull = GPIO_NOPULL;
 1042              		.loc 1 526 3 is_stmt 1 view .LVU464
 1043              		.loc 1 526 24 is_stmt 0 view .LVU465
 1044 0492 0D94     		str	r4, [sp, #52]
 527:Core/Src/gpio.c ****   GPIO_InitStruct.Speed = GPIO_SPEED_FREQ_LOW;
 1045              		.loc 1 527 3 is_stmt 1 view .LVU466
 1046              		.loc 1 527 25 is_stmt 0 view .LVU467
 1047 0494 0E94     		str	r4, [sp, #56]
 528:Core/Src/gpio.c ****   GPIO_InitStruct.Alternate = GPIO_AF1_TIM1;
 1048              		.loc 1 528 3 is_stmt 1 view .LVU468
 1049              		.loc 1 528 29 is_stmt 0 view .LVU469
 1050 0496 0F97     		str	r7, [sp, #60]
 529:Core/Src/gpio.c ****   HAL_GPIO_Init(ARDUINO_PWM_D10_GPIO_Port, &GPIO_InitStruct);
 1051              		.loc 1 529 3 is_stmt 1 view .LVU470
 1052 0498 0BA9     		add	r1, sp, #44
 1053 049a 3A48     		ldr	r0, .L6
 1054 049c FFF7FEFF 		bl	HAL_GPIO_Init
 1055              	.LVL43:
 530:Core/Src/gpio.c **** 
 531:Core/Src/gpio.c ****   /*Configure GPIO pin : PtPin */
 532:Core/Src/gpio.c ****   GPIO_InitStruct.Pin = LCD_INT_Pin;
 1056              		.loc 1 532 3 view .LVU471
 1057              		.loc 1 532 23 is_stmt 0 view .LVU472
 1058 04a0 CDF82CA0 		str	r10, [sp, #44]
 533:Core/Src/gpio.c ****   GPIO_InitStruct.Mode = GPIO_MODE_EVT_RISING;
 1059              		.loc 1 533 3 is_stmt 1 view .LVU473
 1060              		.loc 1 533 24 is_stmt 0 view .LVU474
 1061 04a4 4FF49013 		mov	r3, #1179648
 1062 04a8 0C93     		str	r3, [sp, #48]
 534:Core/Src/gpio.c ****   GPIO_InitStruct.Pull = GPIO_NOPULL;
 1063              		.loc 1 534 3 is_stmt 1 view .LVU475
ARM GAS  C:\Users\billa\AppData\Local\Temp\ccRGzkBf.s 			page 29


 1064              		.loc 1 534 24 is_stmt 0 view .LVU476
 1065 04aa 0D94     		str	r4, [sp, #52]
 535:Core/Src/gpio.c ****   HAL_GPIO_Init(LCD_INT_GPIO_Port, &GPIO_InitStruct);
 1066              		.loc 1 535 3 is_stmt 1 view .LVU477
 1067 04ac 0BA9     		add	r1, sp, #44
 1068 04ae 3648     		ldr	r0, .L6+4
 1069 04b0 FFF7FEFF 		bl	HAL_GPIO_Init
 1070              	.LVL44:
 536:Core/Src/gpio.c **** 
 537:Core/Src/gpio.c ****   /*Configure GPIO pins : PCPin PCPin */
 538:Core/Src/gpio.c ****   GPIO_InitStruct.Pin = ARDUINO_RX_D0_Pin|ARDUINO_TX_D1_Pin;
 1071              		.loc 1 538 3 view .LVU478
 1072              		.loc 1 538 23 is_stmt 0 view .LVU479
 1073 04b4 C023     		movs	r3, #192
 1074 04b6 0B93     		str	r3, [sp, #44]
 539:Core/Src/gpio.c ****   GPIO_InitStruct.Mode = GPIO_MODE_AF_PP;
 1075              		.loc 1 539 3 is_stmt 1 view .LVU480
 1076              		.loc 1 539 24 is_stmt 0 view .LVU481
 1077 04b8 0C95     		str	r5, [sp, #48]
 540:Core/Src/gpio.c ****   GPIO_InitStruct.Pull = GPIO_NOPULL;
 1078              		.loc 1 540 3 is_stmt 1 view .LVU482
 1079              		.loc 1 540 24 is_stmt 0 view .LVU483
 1080 04ba 0D94     		str	r4, [sp, #52]
 541:Core/Src/gpio.c ****   GPIO_InitStruct.Speed = GPIO_SPEED_FREQ_VERY_HIGH;
 1081              		.loc 1 541 3 is_stmt 1 view .LVU484
 1082              		.loc 1 541 25 is_stmt 0 view .LVU485
 1083 04bc 0E96     		str	r6, [sp, #56]
 542:Core/Src/gpio.c ****   GPIO_InitStruct.Alternate = GPIO_AF8_USART6;
 1084              		.loc 1 542 3 is_stmt 1 view .LVU486
 1085              		.loc 1 542 29 is_stmt 0 view .LVU487
 1086 04be 0823     		movs	r3, #8
 1087 04c0 0F93     		str	r3, [sp, #60]
 543:Core/Src/gpio.c ****   HAL_GPIO_Init(GPIOC, &GPIO_InitStruct);
 1088              		.loc 1 543 3 is_stmt 1 view .LVU488
 1089 04c2 0BA9     		add	r1, sp, #44
 1090 04c4 3348     		ldr	r0, .L6+16
 1091 04c6 FFF7FEFF 		bl	HAL_GPIO_Init
 1092              	.LVL45:
 544:Core/Src/gpio.c **** 
 545:Core/Src/gpio.c ****   /*Configure GPIO pin : PtPin */
 546:Core/Src/gpio.c ****   GPIO_InitStruct.Pin = ULPI_NXT_Pin;
 1093              		.loc 1 546 3 view .LVU489
 1094              		.loc 1 546 23 is_stmt 0 view .LVU490
 1095 04ca 1023     		movs	r3, #16
 1096 04cc 0B93     		str	r3, [sp, #44]
 547:Core/Src/gpio.c ****   GPIO_InitStruct.Mode = GPIO_MODE_AF_PP;
 1097              		.loc 1 547 3 is_stmt 1 view .LVU491
 1098              		.loc 1 547 24 is_stmt 0 view .LVU492
 1099 04ce 0C95     		str	r5, [sp, #48]
 548:Core/Src/gpio.c ****   GPIO_InitStruct.Pull = GPIO_NOPULL;
 1100              		.loc 1 548 3 is_stmt 1 view .LVU493
 1101              		.loc 1 548 24 is_stmt 0 view .LVU494
 1102 04d0 0D94     		str	r4, [sp, #52]
 549:Core/Src/gpio.c ****   GPIO_InitStruct.Speed = GPIO_SPEED_FREQ_VERY_HIGH;
 1103              		.loc 1 549 3 is_stmt 1 view .LVU495
 1104              		.loc 1 549 25 is_stmt 0 view .LVU496
 1105 04d2 0E96     		str	r6, [sp, #56]
ARM GAS  C:\Users\billa\AppData\Local\Temp\ccRGzkBf.s 			page 30


 550:Core/Src/gpio.c ****   GPIO_InitStruct.Alternate = GPIO_AF10_OTG_HS;
 1106              		.loc 1 550 3 is_stmt 1 view .LVU497
 1107              		.loc 1 550 29 is_stmt 0 view .LVU498
 1108 04d4 CDF83CB0 		str	fp, [sp, #60]
 551:Core/Src/gpio.c ****   HAL_GPIO_Init(ULPI_NXT_GPIO_Port, &GPIO_InitStruct);
 1109              		.loc 1 551 3 is_stmt 1 view .LVU499
 1110 04d8 0BA9     		add	r1, sp, #44
 1111 04da 3048     		ldr	r0, .L6+24
 1112 04dc FFF7FEFF 		bl	HAL_GPIO_Init
 1113              	.LVL46:
 552:Core/Src/gpio.c **** 
 553:Core/Src/gpio.c ****   /*Configure GPIO pins : PHPin PHPin */
 554:Core/Src/gpio.c ****   GPIO_InitStruct.Pin = FMC_SDNME_Pin|FMC_SDNE0_Pin;
 1114              		.loc 1 554 3 view .LVU500
 1115              		.loc 1 554 23 is_stmt 0 view .LVU501
 1116 04e0 4FF0280A 		mov	r10, #40
 1117 04e4 CDF82CA0 		str	r10, [sp, #44]
 555:Core/Src/gpio.c ****   GPIO_InitStruct.Mode = GPIO_MODE_AF_PP;
 1118              		.loc 1 555 3 is_stmt 1 view .LVU502
 1119              		.loc 1 555 24 is_stmt 0 view .LVU503
 1120 04e8 0C95     		str	r5, [sp, #48]
 556:Core/Src/gpio.c ****   GPIO_InitStruct.Pull = GPIO_NOPULL;
 1121              		.loc 1 556 3 is_stmt 1 view .LVU504
 1122              		.loc 1 556 24 is_stmt 0 view .LVU505
 1123 04ea 0D94     		str	r4, [sp, #52]
 557:Core/Src/gpio.c ****   GPIO_InitStruct.Speed = GPIO_SPEED_FREQ_VERY_HIGH;
 1124              		.loc 1 557 3 is_stmt 1 view .LVU506
 1125              		.loc 1 557 25 is_stmt 0 view .LVU507
 1126 04ec 0E96     		str	r6, [sp, #56]
 558:Core/Src/gpio.c ****   GPIO_InitStruct.Alternate = GPIO_AF12_FMC;
 1127              		.loc 1 558 3 is_stmt 1 view .LVU508
 1128              		.loc 1 558 29 is_stmt 0 view .LVU509
 1129 04ee CDF83C90 		str	r9, [sp, #60]
 559:Core/Src/gpio.c ****   HAL_GPIO_Init(GPIOH, &GPIO_InitStruct);
 1130              		.loc 1 559 3 is_stmt 1 view .LVU510
 1131 04f2 0BA9     		add	r1, sp, #44
 1132 04f4 2948     		ldr	r0, .L6+24
 1133 04f6 FFF7FEFF 		bl	HAL_GPIO_Init
 1134              	.LVL47:
 560:Core/Src/gpio.c **** 
 561:Core/Src/gpio.c ****   /*Configure GPIO pins : PGPin PGPin PGPin */
 562:Core/Src/gpio.c ****   GPIO_InitStruct.Pin = ARDUINO_D4_Pin|ARDUINO_D2_Pin|EXT_RST_Pin;
 1135              		.loc 1 562 3 view .LVU511
 1136              		.loc 1 562 23 is_stmt 0 view .LVU512
 1137 04fa C823     		movs	r3, #200
 1138 04fc 0B93     		str	r3, [sp, #44]
 563:Core/Src/gpio.c ****   GPIO_InitStruct.Mode = GPIO_MODE_OUTPUT_PP;
 1139              		.loc 1 563 3 is_stmt 1 view .LVU513
 1140              		.loc 1 563 24 is_stmt 0 view .LVU514
 1141 04fe 0C97     		str	r7, [sp, #48]
 564:Core/Src/gpio.c ****   GPIO_InitStruct.Pull = GPIO_NOPULL;
 1142              		.loc 1 564 3 is_stmt 1 view .LVU515
 1143              		.loc 1 564 24 is_stmt 0 view .LVU516
 1144 0500 0D94     		str	r4, [sp, #52]
 565:Core/Src/gpio.c ****   GPIO_InitStruct.Speed = GPIO_SPEED_FREQ_LOW;
 1145              		.loc 1 565 3 is_stmt 1 view .LVU517
 1146              		.loc 1 565 25 is_stmt 0 view .LVU518
ARM GAS  C:\Users\billa\AppData\Local\Temp\ccRGzkBf.s 			page 31


 1147 0502 0E94     		str	r4, [sp, #56]
 566:Core/Src/gpio.c ****   HAL_GPIO_Init(GPIOG, &GPIO_InitStruct);
 1148              		.loc 1 566 3 is_stmt 1 view .LVU519
 1149 0504 0BA9     		add	r1, sp, #44
 1150 0506 2248     		ldr	r0, .L6+12
 1151 0508 FFF7FEFF 		bl	HAL_GPIO_Init
 1152              	.LVL48:
 567:Core/Src/gpio.c **** 
 568:Core/Src/gpio.c ****   /*Configure GPIO pins : PFPin PFPin PFPin PFPin
 569:Core/Src/gpio.c ****                            PFPin */
 570:Core/Src/gpio.c ****   GPIO_InitStruct.Pin = ARDUINO_A4_Pin|ARDUINO_A5_Pin|ARDUINO_A1_Pin|ARDUINO_A2_Pin
 1153              		.loc 1 570 3 view .LVU520
 1154              		.loc 1 570 23 is_stmt 0 view .LVU521
 1155 050c 4FF4F863 		mov	r3, #1984
 1156 0510 0B93     		str	r3, [sp, #44]
 571:Core/Src/gpio.c ****                           |ARDUINO_A3_Pin;
 572:Core/Src/gpio.c ****   GPIO_InitStruct.Mode = GPIO_MODE_ANALOG;
 1157              		.loc 1 572 3 is_stmt 1 view .LVU522
 1158              		.loc 1 572 24 is_stmt 0 view .LVU523
 1159 0512 0C96     		str	r6, [sp, #48]
 573:Core/Src/gpio.c ****   GPIO_InitStruct.Pull = GPIO_NOPULL;
 1160              		.loc 1 573 3 is_stmt 1 view .LVU524
 1161              		.loc 1 573 24 is_stmt 0 view .LVU525
 1162 0514 0D94     		str	r4, [sp, #52]
 574:Core/Src/gpio.c ****   HAL_GPIO_Init(GPIOF, &GPIO_InitStruct);
 1163              		.loc 1 574 3 is_stmt 1 view .LVU526
 1164 0516 0BA9     		add	r1, sp, #44
 1165 0518 1F48     		ldr	r0, .L6+20
 1166 051a FFF7FEFF 		bl	HAL_GPIO_Init
 1167              	.LVL49:
 575:Core/Src/gpio.c **** 
 576:Core/Src/gpio.c ****   /*Configure GPIO pin : PtPin */
 577:Core/Src/gpio.c ****   GPIO_InitStruct.Pin = FMC_SDCKE0_Pin;
 1168              		.loc 1 577 3 view .LVU527
 1169              		.loc 1 577 23 is_stmt 0 view .LVU528
 1170 051e 0823     		movs	r3, #8
 1171 0520 0B93     		str	r3, [sp, #44]
 578:Core/Src/gpio.c ****   GPIO_InitStruct.Mode = GPIO_MODE_AF_PP;
 1172              		.loc 1 578 3 is_stmt 1 view .LVU529
 1173              		.loc 1 578 24 is_stmt 0 view .LVU530
 1174 0522 0C95     		str	r5, [sp, #48]
 579:Core/Src/gpio.c ****   GPIO_InitStruct.Pull = GPIO_NOPULL;
 1175              		.loc 1 579 3 is_stmt 1 view .LVU531
 1176              		.loc 1 579 24 is_stmt 0 view .LVU532
 1177 0524 0D94     		str	r4, [sp, #52]
 580:Core/Src/gpio.c ****   GPIO_InitStruct.Speed = GPIO_SPEED_FREQ_VERY_HIGH;
 1178              		.loc 1 580 3 is_stmt 1 view .LVU533
 1179              		.loc 1 580 25 is_stmt 0 view .LVU534
 1180 0526 0E96     		str	r6, [sp, #56]
 581:Core/Src/gpio.c ****   GPIO_InitStruct.Alternate = GPIO_AF12_FMC;
 1181              		.loc 1 581 3 is_stmt 1 view .LVU535
 1182              		.loc 1 581 29 is_stmt 0 view .LVU536
 1183 0528 CDF83C90 		str	r9, [sp, #60]
 582:Core/Src/gpio.c ****   HAL_GPIO_Init(FMC_SDCKE0_GPIO_Port, &GPIO_InitStruct);
 1184              		.loc 1 582 3 is_stmt 1 view .LVU537
 1185 052c 0BA9     		add	r1, sp, #44
 1186 052e 1948     		ldr	r0, .L6+16
ARM GAS  C:\Users\billa\AppData\Local\Temp\ccRGzkBf.s 			page 32


 1187 0530 FFF7FEFF 		bl	HAL_GPIO_Init
 1188              	.LVL50:
 583:Core/Src/gpio.c **** 
 584:Core/Src/gpio.c ****   /*Configure GPIO pins : PCPin PCPin */
 585:Core/Src/gpio.c ****   GPIO_InitStruct.Pin = ULPI_STP_Pin|ULPI_DIR_Pin;
 1189              		.loc 1 585 3 view .LVU538
 1190              		.loc 1 585 23 is_stmt 0 view .LVU539
 1191 0534 0523     		movs	r3, #5
 1192 0536 0B93     		str	r3, [sp, #44]
 586:Core/Src/gpio.c ****   GPIO_InitStruct.Mode = GPIO_MODE_AF_PP;
 1193              		.loc 1 586 3 is_stmt 1 view .LVU540
 1194              		.loc 1 586 24 is_stmt 0 view .LVU541
 1195 0538 0C95     		str	r5, [sp, #48]
 587:Core/Src/gpio.c ****   GPIO_InitStruct.Pull = GPIO_NOPULL;
 1196              		.loc 1 587 3 is_stmt 1 view .LVU542
 1197              		.loc 1 587 24 is_stmt 0 view .LVU543
 1198 053a 0D94     		str	r4, [sp, #52]
 588:Core/Src/gpio.c ****   GPIO_InitStruct.Speed = GPIO_SPEED_FREQ_VERY_HIGH;
 1199              		.loc 1 588 3 is_stmt 1 view .LVU544
 1200              		.loc 1 588 25 is_stmt 0 view .LVU545
 1201 053c 0E96     		str	r6, [sp, #56]
 589:Core/Src/gpio.c ****   GPIO_InitStruct.Alternate = GPIO_AF10_OTG_HS;
 1202              		.loc 1 589 3 is_stmt 1 view .LVU546
 1203              		.loc 1 589 29 is_stmt 0 view .LVU547
 1204 053e CDF83CB0 		str	fp, [sp, #60]
 590:Core/Src/gpio.c ****   HAL_GPIO_Init(GPIOC, &GPIO_InitStruct);
 1205              		.loc 1 590 3 is_stmt 1 view .LVU548
 1206 0542 0BA9     		add	r1, sp, #44
 1207 0544 1348     		ldr	r0, .L6+16
 1208 0546 FFF7FEFF 		bl	HAL_GPIO_Init
 1209              	.LVL51:
 591:Core/Src/gpio.c **** 
 592:Core/Src/gpio.c ****   /*Configure GPIO pins : PCPin PCPin PCPin */
 593:Core/Src/gpio.c ****   GPIO_InitStruct.Pin = RMII_MDC_Pin|RMII_RXD0_Pin|RMII_RXD1_Pin;
 1210              		.loc 1 593 3 view .LVU549
 1211              		.loc 1 593 23 is_stmt 0 view .LVU550
 1212 054a 3223     		movs	r3, #50
 1213 054c 0B93     		str	r3, [sp, #44]
 594:Core/Src/gpio.c ****   GPIO_InitStruct.Mode = GPIO_MODE_AF_PP;
 1214              		.loc 1 594 3 is_stmt 1 view .LVU551
 1215              		.loc 1 594 24 is_stmt 0 view .LVU552
 1216 054e 0C95     		str	r5, [sp, #48]
 595:Core/Src/gpio.c ****   GPIO_InitStruct.Pull = GPIO_NOPULL;
 1217              		.loc 1 595 3 is_stmt 1 view .LVU553
 1218              		.loc 1 595 24 is_stmt 0 view .LVU554
 1219 0550 0D94     		str	r4, [sp, #52]
 596:Core/Src/gpio.c ****   GPIO_InitStruct.Speed = GPIO_SPEED_FREQ_VERY_HIGH;
 1220              		.loc 1 596 3 is_stmt 1 view .LVU555
 1221              		.loc 1 596 25 is_stmt 0 view .LVU556
 1222 0552 0E96     		str	r6, [sp, #56]
 597:Core/Src/gpio.c ****   GPIO_InitStruct.Alternate = GPIO_AF11_ETH;
 1223              		.loc 1 597 3 is_stmt 1 view .LVU557
 1224              		.loc 1 597 29 is_stmt 0 view .LVU558
 1225 0554 0B23     		movs	r3, #11
 1226 0556 0F93     		str	r3, [sp, #60]
 598:Core/Src/gpio.c ****   HAL_GPIO_Init(GPIOC, &GPIO_InitStruct);
 1227              		.loc 1 598 3 is_stmt 1 view .LVU559
ARM GAS  C:\Users\billa\AppData\Local\Temp\ccRGzkBf.s 			page 33


 1228 0558 0BA9     		add	r1, sp, #44
 1229 055a 0E48     		ldr	r0, .L6+16
 1230 055c FFF7FEFF 		bl	HAL_GPIO_Init
 1231              	.LVL52:
 599:Core/Src/gpio.c **** 
 600:Core/Src/gpio.c ****   /*Configure GPIO pin : PB2 */
 601:Core/Src/gpio.c ****   GPIO_InitStruct.Pin = GPIO_PIN_2;
 1232              		.loc 1 601 3 view .LVU560
 1233              		.loc 1 601 23 is_stmt 0 view .LVU561
 1234 0560 0423     		movs	r3, #4
 1235 0562 0B93     		str	r3, [sp, #44]
 602:Core/Src/gpio.c ****   GPIO_InitStruct.Mode = GPIO_MODE_AF_PP;
 1236              		.loc 1 602 3 is_stmt 1 view .LVU562
 1237              		.loc 1 602 24 is_stmt 0 view .LVU563
 1238 0564 0C95     		str	r5, [sp, #48]
 603:Core/Src/gpio.c ****   GPIO_InitStruct.Pull = GPIO_NOPULL;
 1239              		.loc 1 603 3 is_stmt 1 view .LVU564
 1240              		.loc 1 603 24 is_stmt 0 view .LVU565
 1241 0566 0D94     		str	r4, [sp, #52]
 604:Core/Src/gpio.c ****   GPIO_InitStruct.Speed = GPIO_SPEED_FREQ_VERY_HIGH;
 1242              		.loc 1 604 3 is_stmt 1 view .LVU566
 1243              		.loc 1 604 25 is_stmt 0 view .LVU567
 1244 0568 0E96     		str	r6, [sp, #56]
 605:Core/Src/gpio.c ****   GPIO_InitStruct.Alternate = GPIO_AF9_QUADSPI;
 1245              		.loc 1 605 3 is_stmt 1 view .LVU568
 1246              		.loc 1 605 29 is_stmt 0 view .LVU569
 1247 056a 0923     		movs	r3, #9
 1248 056c 0F93     		str	r3, [sp, #60]
 606:Core/Src/gpio.c ****   HAL_GPIO_Init(GPIOB, &GPIO_InitStruct);
 1249              		.loc 1 606 3 is_stmt 1 view .LVU570
 1250 056e 0BA9     		add	r1, sp, #44
 1251 0570 0B48     		ldr	r0, .L6+28
 1252 0572 FFF7FEFF 		bl	HAL_GPIO_Init
 1253              	.LVL53:
 607:Core/Src/gpio.c **** 
 608:Core/Src/gpio.c ****   /*Configure GPIO pins : PDPin PDPin PDPin */
 609:Core/Src/gpio.c ****   GPIO_InitStruct.Pin = QSPI_D1_Pin|QSPI_D3_Pin|QSPI_D0_Pin;
 1254              		.loc 1 609 3 view .LVU571
 1255              		.loc 1 609 23 is_stmt 0 view .LVU572
 1256 0576 4FF46053 		mov	r3, #14336
 1257 057a 0B93     		str	r3, [sp, #44]
 610:Core/Src/gpio.c ****   GPIO_InitStruct.Mode = GPIO_MODE_AF_PP;
 1258              		.loc 1 610 3 is_stmt 1 view .LVU573
 1259              		.loc 1 610 24 is_stmt 0 view .LVU574
 1260 057c 0C95     		str	r5, [sp, #48]
 611:Core/Src/gpio.c ****   GPIO_InitStruct.Pull = GPIO_NOPULL;
 1261              		.loc 1 611 3 is_stmt 1 view .LVU575
 1262              		.loc 1 611 24 is_stmt 0 view .LVU576
 1263 057e 0D94     		str	r4, [sp, #52]
 612:Core/Src/gpio.c ****   GPIO_InitStruct.Speed = GPIO_SPEED_FREQ_VERY_HIGH;
 1264              		.loc 1 612 3 is_stmt 1 view .LVU577
 1265              		.loc 1 612 25 is_stmt 0 view .LVU578
 1266 0580 0E96     		str	r6, [sp, #56]
 1267 0582 0FE0     		b	.L7
 1268              	.L8:
 1269              		.align	2
 1270              	.L6:
ARM GAS  C:\Users\billa\AppData\Local\Temp\ccRGzkBf.s 			page 34


 1271 0584 00000240 		.word	1073872896
 1272 0588 00200240 		.word	1073881088
 1273 058c 00280240 		.word	1073883136
 1274 0590 00180240 		.word	1073879040
 1275 0594 00080240 		.word	1073874944
 1276 0598 00140240 		.word	1073878016
 1277 059c 001C0240 		.word	1073880064
 1278 05a0 00040240 		.word	1073873920
 1279              	.L7:
 613:Core/Src/gpio.c ****   GPIO_InitStruct.Alternate = GPIO_AF9_QUADSPI;
 1280              		.loc 1 613 3 is_stmt 1 view .LVU579
 1281              		.loc 1 613 29 is_stmt 0 view .LVU580
 1282 05a4 0923     		movs	r3, #9
 1283 05a6 0F93     		str	r3, [sp, #60]
 614:Core/Src/gpio.c ****   HAL_GPIO_Init(GPIOD, &GPIO_InitStruct);
 1284              		.loc 1 614 3 is_stmt 1 view .LVU581
 1285 05a8 0BA9     		add	r1, sp, #44
 1286 05aa 4046     		mov	r0, r8
 1287 05ac FFF7FEFF 		bl	HAL_GPIO_Init
 1288              	.LVL54:
 615:Core/Src/gpio.c **** 
 616:Core/Src/gpio.c ****   /*Configure GPIO pin : PtPin */
 617:Core/Src/gpio.c ****   GPIO_InitStruct.Pin = RMII_RXER_Pin;
 1289              		.loc 1 617 3 view .LVU582
 1290              		.loc 1 617 23 is_stmt 0 view .LVU583
 1291 05b0 0423     		movs	r3, #4
 1292 05b2 0B93     		str	r3, [sp, #44]
 618:Core/Src/gpio.c ****   GPIO_InitStruct.Mode = GPIO_MODE_INPUT;
 1293              		.loc 1 618 3 is_stmt 1 view .LVU584
 1294              		.loc 1 618 24 is_stmt 0 view .LVU585
 1295 05b4 0C94     		str	r4, [sp, #48]
 619:Core/Src/gpio.c ****   GPIO_InitStruct.Pull = GPIO_NOPULL;
 1296              		.loc 1 619 3 is_stmt 1 view .LVU586
 1297              		.loc 1 619 24 is_stmt 0 view .LVU587
 1298 05b6 0D94     		str	r4, [sp, #52]
 620:Core/Src/gpio.c ****   HAL_GPIO_Init(RMII_RXER_GPIO_Port, &GPIO_InitStruct);
 1299              		.loc 1 620 3 is_stmt 1 view .LVU588
 1300 05b8 0BA9     		add	r1, sp, #44
 1301 05ba 2948     		ldr	r0, .L9
 1302 05bc FFF7FEFF 		bl	HAL_GPIO_Init
 1303              	.LVL55:
 621:Core/Src/gpio.c **** 
 622:Core/Src/gpio.c ****   /*Configure GPIO pins : PAPin PAPin PAPin */
 623:Core/Src/gpio.c ****   GPIO_InitStruct.Pin = RMII_REF_CLK_Pin|RMII_MDIO_Pin|RMII_CRS_DV_Pin;
 1304              		.loc 1 623 3 view .LVU589
 1305              		.loc 1 623 23 is_stmt 0 view .LVU590
 1306 05c0 8623     		movs	r3, #134
 1307 05c2 0B93     		str	r3, [sp, #44]
 624:Core/Src/gpio.c ****   GPIO_InitStruct.Mode = GPIO_MODE_AF_PP;
 1308              		.loc 1 624 3 is_stmt 1 view .LVU591
 1309              		.loc 1 624 24 is_stmt 0 view .LVU592
 1310 05c4 0C95     		str	r5, [sp, #48]
 625:Core/Src/gpio.c ****   GPIO_InitStruct.Pull = GPIO_NOPULL;
 1311              		.loc 1 625 3 is_stmt 1 view .LVU593
 1312              		.loc 1 625 24 is_stmt 0 view .LVU594
 1313 05c6 0D94     		str	r4, [sp, #52]
 626:Core/Src/gpio.c ****   GPIO_InitStruct.Speed = GPIO_SPEED_FREQ_VERY_HIGH;
ARM GAS  C:\Users\billa\AppData\Local\Temp\ccRGzkBf.s 			page 35


 1314              		.loc 1 626 3 is_stmt 1 view .LVU595
 1315              		.loc 1 626 25 is_stmt 0 view .LVU596
 1316 05c8 0E96     		str	r6, [sp, #56]
 627:Core/Src/gpio.c ****   GPIO_InitStruct.Alternate = GPIO_AF11_ETH;
 1317              		.loc 1 627 3 is_stmt 1 view .LVU597
 1318              		.loc 1 627 29 is_stmt 0 view .LVU598
 1319 05ca 0B23     		movs	r3, #11
 1320 05cc 0F93     		str	r3, [sp, #60]
 628:Core/Src/gpio.c ****   HAL_GPIO_Init(GPIOA, &GPIO_InitStruct);
 1321              		.loc 1 628 3 is_stmt 1 view .LVU599
 1322 05ce 0BA9     		add	r1, sp, #44
 1323 05d0 2448     		ldr	r0, .L9+4
 1324 05d2 FFF7FEFF 		bl	HAL_GPIO_Init
 1325              	.LVL56:
 629:Core/Src/gpio.c **** 
 630:Core/Src/gpio.c ****   /*Configure GPIO pin : PtPin */
 631:Core/Src/gpio.c ****   GPIO_InitStruct.Pin = ARDUINO_A0_Pin;
 1326              		.loc 1 631 3 view .LVU600
 1327              		.loc 1 631 23 is_stmt 0 view .LVU601
 1328 05d6 0B97     		str	r7, [sp, #44]
 632:Core/Src/gpio.c ****   GPIO_InitStruct.Mode = GPIO_MODE_ANALOG;
 1329              		.loc 1 632 3 is_stmt 1 view .LVU602
 1330              		.loc 1 632 24 is_stmt 0 view .LVU603
 1331 05d8 0C96     		str	r6, [sp, #48]
 633:Core/Src/gpio.c ****   GPIO_InitStruct.Pull = GPIO_NOPULL;
 1332              		.loc 1 633 3 is_stmt 1 view .LVU604
 1333              		.loc 1 633 24 is_stmt 0 view .LVU605
 1334 05da 0D94     		str	r4, [sp, #52]
 634:Core/Src/gpio.c ****   HAL_GPIO_Init(ARDUINO_A0_GPIO_Port, &GPIO_InitStruct);
 1335              		.loc 1 634 3 is_stmt 1 view .LVU606
 1336 05dc 0BA9     		add	r1, sp, #44
 1337 05de 2148     		ldr	r0, .L9+4
 1338 05e0 FFF7FEFF 		bl	HAL_GPIO_Init
 1339              	.LVL57:
 635:Core/Src/gpio.c **** 
 636:Core/Src/gpio.c ****   /*Configure GPIO pins : PAPin PA6 */
 637:Core/Src/gpio.c ****   GPIO_InitStruct.Pin = DCMI_HSYNC_Pin|GPIO_PIN_6;
 1340              		.loc 1 637 3 view .LVU607
 1341              		.loc 1 637 23 is_stmt 0 view .LVU608
 1342 05e4 5023     		movs	r3, #80
 1343 05e6 0B93     		str	r3, [sp, #44]
 638:Core/Src/gpio.c ****   GPIO_InitStruct.Mode = GPIO_MODE_AF_PP;
 1344              		.loc 1 638 3 is_stmt 1 view .LVU609
 1345              		.loc 1 638 24 is_stmt 0 view .LVU610
 1346 05e8 0C95     		str	r5, [sp, #48]
 639:Core/Src/gpio.c ****   GPIO_InitStruct.Pull = GPIO_NOPULL;
 1347              		.loc 1 639 3 is_stmt 1 view .LVU611
 1348              		.loc 1 639 24 is_stmt 0 view .LVU612
 1349 05ea 0D94     		str	r4, [sp, #52]
 640:Core/Src/gpio.c ****   GPIO_InitStruct.Speed = GPIO_SPEED_FREQ_LOW;
 1350              		.loc 1 640 3 is_stmt 1 view .LVU613
 1351              		.loc 1 640 25 is_stmt 0 view .LVU614
 1352 05ec 0E94     		str	r4, [sp, #56]
 641:Core/Src/gpio.c ****   GPIO_InitStruct.Alternate = GPIO_AF13_DCMI;
 1353              		.loc 1 641 3 is_stmt 1 view .LVU615
 1354              		.loc 1 641 29 is_stmt 0 view .LVU616
 1355 05ee 0D23     		movs	r3, #13
ARM GAS  C:\Users\billa\AppData\Local\Temp\ccRGzkBf.s 			page 36


 1356 05f0 0F93     		str	r3, [sp, #60]
 642:Core/Src/gpio.c ****   HAL_GPIO_Init(GPIOA, &GPIO_InitStruct);
 1357              		.loc 1 642 3 is_stmt 1 view .LVU617
 1358 05f2 0BA9     		add	r1, sp, #44
 1359 05f4 1B48     		ldr	r0, .L9+4
 1360 05f6 FFF7FEFF 		bl	HAL_GPIO_Init
 1361              	.LVL58:
 643:Core/Src/gpio.c **** 
 644:Core/Src/gpio.c ****   /*Configure GPIO pins : PHPin PHPin */
 645:Core/Src/gpio.c ****   GPIO_InitStruct.Pin = LCD_SCL_Pin|LCD_SDA_Pin;
 1362              		.loc 1 645 3 view .LVU618
 1363              		.loc 1 645 23 is_stmt 0 view .LVU619
 1364 05fa 4FF4C073 		mov	r3, #384
 1365 05fe 0B93     		str	r3, [sp, #44]
 646:Core/Src/gpio.c ****   GPIO_InitStruct.Mode = GPIO_MODE_AF_OD;
 1366              		.loc 1 646 3 is_stmt 1 view .LVU620
 1367              		.loc 1 646 24 is_stmt 0 view .LVU621
 1368 0600 1223     		movs	r3, #18
 1369 0602 0C93     		str	r3, [sp, #48]
 647:Core/Src/gpio.c ****   GPIO_InitStruct.Pull = GPIO_NOPULL;
 1370              		.loc 1 647 3 is_stmt 1 view .LVU622
 1371              		.loc 1 647 24 is_stmt 0 view .LVU623
 1372 0604 0D94     		str	r4, [sp, #52]
 648:Core/Src/gpio.c ****   GPIO_InitStruct.Speed = GPIO_SPEED_FREQ_VERY_HIGH;
 1373              		.loc 1 648 3 is_stmt 1 view .LVU624
 1374              		.loc 1 648 25 is_stmt 0 view .LVU625
 1375 0606 0E96     		str	r6, [sp, #56]
 649:Core/Src/gpio.c ****   GPIO_InitStruct.Alternate = GPIO_AF4_I2C3;
 1376              		.loc 1 649 3 is_stmt 1 view .LVU626
 1377              		.loc 1 649 29 is_stmt 0 view .LVU627
 1378 0608 0423     		movs	r3, #4
 1379 060a 0F93     		str	r3, [sp, #60]
 650:Core/Src/gpio.c ****   HAL_GPIO_Init(GPIOH, &GPIO_InitStruct);
 1380              		.loc 1 650 3 is_stmt 1 view .LVU628
 1381 060c 0BA9     		add	r1, sp, #44
 1382 060e 1648     		ldr	r0, .L9+8
 1383 0610 FFF7FEFF 		bl	HAL_GPIO_Init
 1384              	.LVL59:
 651:Core/Src/gpio.c **** 
 652:Core/Src/gpio.c ****   /*Configure GPIO pins : PAPin PAPin */
 653:Core/Src/gpio.c ****   GPIO_InitStruct.Pin = ULPI_CLK_Pin|ULPI_D0_Pin;
 1385              		.loc 1 653 3 view .LVU629
 1386              		.loc 1 653 23 is_stmt 0 view .LVU630
 1387 0614 CDF82CA0 		str	r10, [sp, #44]
 654:Core/Src/gpio.c ****   GPIO_InitStruct.Mode = GPIO_MODE_AF_PP;
 1388              		.loc 1 654 3 is_stmt 1 view .LVU631
 1389              		.loc 1 654 24 is_stmt 0 view .LVU632
 1390 0618 0C95     		str	r5, [sp, #48]
 655:Core/Src/gpio.c ****   GPIO_InitStruct.Pull = GPIO_NOPULL;
 1391              		.loc 1 655 3 is_stmt 1 view .LVU633
 1392              		.loc 1 655 24 is_stmt 0 view .LVU634
 1393 061a 0D94     		str	r4, [sp, #52]
 656:Core/Src/gpio.c ****   GPIO_InitStruct.Speed = GPIO_SPEED_FREQ_VERY_HIGH;
 1394              		.loc 1 656 3 is_stmt 1 view .LVU635
 1395              		.loc 1 656 25 is_stmt 0 view .LVU636
 1396 061c 0E96     		str	r6, [sp, #56]
 657:Core/Src/gpio.c ****   GPIO_InitStruct.Alternate = GPIO_AF10_OTG_HS;
ARM GAS  C:\Users\billa\AppData\Local\Temp\ccRGzkBf.s 			page 37


 1397              		.loc 1 657 3 is_stmt 1 view .LVU637
 1398              		.loc 1 657 29 is_stmt 0 view .LVU638
 1399 061e CDF83CB0 		str	fp, [sp, #60]
 658:Core/Src/gpio.c ****   HAL_GPIO_Init(GPIOA, &GPIO_InitStruct);
 1400              		.loc 1 658 3 is_stmt 1 view .LVU639
 1401 0622 0BA9     		add	r1, sp, #44
 1402 0624 0F48     		ldr	r0, .L9+4
 1403 0626 FFF7FEFF 		bl	HAL_GPIO_Init
 1404              	.LVL60:
 659:Core/Src/gpio.c **** 
 660:Core/Src/gpio.c ****   /*Configure GPIO pin : PtPin */
 661:Core/Src/gpio.c ****   GPIO_InitStruct.Pin = ARDUINO_PWM_D6_Pin;
 1405              		.loc 1 661 3 view .LVU640
 1406              		.loc 1 661 23 is_stmt 0 view .LVU641
 1407 062a 4023     		movs	r3, #64
 1408 062c 0B93     		str	r3, [sp, #44]
 662:Core/Src/gpio.c ****   GPIO_InitStruct.Mode = GPIO_MODE_AF_PP;
 1409              		.loc 1 662 3 is_stmt 1 view .LVU642
 1410              		.loc 1 662 24 is_stmt 0 view .LVU643
 1411 062e 0C95     		str	r5, [sp, #48]
 663:Core/Src/gpio.c ****   GPIO_InitStruct.Pull = GPIO_NOPULL;
 1412              		.loc 1 663 3 is_stmt 1 view .LVU644
 1413              		.loc 1 663 24 is_stmt 0 view .LVU645
 1414 0630 0D94     		str	r4, [sp, #52]
 664:Core/Src/gpio.c ****   GPIO_InitStruct.Speed = GPIO_SPEED_FREQ_LOW;
 1415              		.loc 1 664 3 is_stmt 1 view .LVU646
 1416              		.loc 1 664 25 is_stmt 0 view .LVU647
 1417 0632 0E94     		str	r4, [sp, #56]
 665:Core/Src/gpio.c ****   GPIO_InitStruct.Alternate = GPIO_AF9_TIM12;
 1418              		.loc 1 665 3 is_stmt 1 view .LVU648
 1419              		.loc 1 665 29 is_stmt 0 view .LVU649
 1420 0634 0923     		movs	r3, #9
 1421 0636 0F93     		str	r3, [sp, #60]
 666:Core/Src/gpio.c ****   HAL_GPIO_Init(ARDUINO_PWM_D6_GPIO_Port, &GPIO_InitStruct);
 1422              		.loc 1 666 3 is_stmt 1 view .LVU650
 1423 0638 0BA9     		add	r1, sp, #44
 1424 063a 0B48     		ldr	r0, .L9+8
 1425 063c FFF7FEFF 		bl	HAL_GPIO_Init
 1426              	.LVL61:
 667:Core/Src/gpio.c **** 
 668:Core/Src/gpio.c ****   /*Configure GPIO pins : PBPin PBPin */
 669:Core/Src/gpio.c ****   GPIO_InitStruct.Pin = ARDUINO_MISO_D12_Pin|ARDUINO_MOSI_PWM_D11_Pin;
 1427              		.loc 1 669 3 view .LVU651
 1428              		.loc 1 669 23 is_stmt 0 view .LVU652
 1429 0640 4FF44043 		mov	r3, #49152
 1430 0644 0B93     		str	r3, [sp, #44]
 670:Core/Src/gpio.c ****   GPIO_InitStruct.Mode = GPIO_MODE_AF_PP;
 1431              		.loc 1 670 3 is_stmt 1 view .LVU653
 1432              		.loc 1 670 24 is_stmt 0 view .LVU654
 1433 0646 0C95     		str	r5, [sp, #48]
 671:Core/Src/gpio.c ****   GPIO_InitStruct.Pull = GPIO_NOPULL;
 1434              		.loc 1 671 3 is_stmt 1 view .LVU655
 1435              		.loc 1 671 24 is_stmt 0 view .LVU656
 1436 0648 0D94     		str	r4, [sp, #52]
 672:Core/Src/gpio.c ****   GPIO_InitStruct.Speed = GPIO_SPEED_FREQ_LOW;
 1437              		.loc 1 672 3 is_stmt 1 view .LVU657
 1438              		.loc 1 672 25 is_stmt 0 view .LVU658
ARM GAS  C:\Users\billa\AppData\Local\Temp\ccRGzkBf.s 			page 38


 1439 064a 0E94     		str	r4, [sp, #56]
 673:Core/Src/gpio.c ****   GPIO_InitStruct.Alternate = GPIO_AF5_SPI2;
 1440              		.loc 1 673 3 is_stmt 1 view .LVU659
 1441              		.loc 1 673 29 is_stmt 0 view .LVU660
 1442 064c 0523     		movs	r3, #5
 1443 064e 0F93     		str	r3, [sp, #60]
 674:Core/Src/gpio.c ****   HAL_GPIO_Init(GPIOB, &GPIO_InitStruct);
 1444              		.loc 1 674 3 is_stmt 1 view .LVU661
 1445 0650 0BA9     		add	r1, sp, #44
 1446 0652 0648     		ldr	r0, .L9+12
 1447 0654 FFF7FEFF 		bl	HAL_GPIO_Init
 1448              	.LVL62:
 675:Core/Src/gpio.c **** 
 676:Core/Src/gpio.c **** }
 1449              		.loc 1 676 1 is_stmt 0 view .LVU662
 1450 0658 11B0     		add	sp, sp, #68
 1451              		.cfi_def_cfa_offset 36
 1452              		@ sp needed
 1453 065a BDE8F08F 		pop	{r4, r5, r6, r7, r8, r9, r10, fp, pc}
 1454              	.L10:
 1455 065e 00BF     		.align	2
 1456              	.L9:
 1457 0660 00180240 		.word	1073879040
 1458 0664 00000240 		.word	1073872896
 1459 0668 001C0240 		.word	1073880064
 1460 066c 00040240 		.word	1073873920
 1461              		.cfi_endproc
 1462              	.LFE141:
 1464              		.text
 1465              	.Letext0:
 1466              		.file 2 "c:\\users\\billa\\appdata\\roaming\\code\\user\\globalstorage\\bmd.stm32-for-vscode\\@xpa
 1467              		.file 3 "c:\\users\\billa\\appdata\\roaming\\code\\user\\globalstorage\\bmd.stm32-for-vscode\\@xpa
 1468              		.file 4 "Drivers/CMSIS/Device/ST/STM32F7xx/Include/stm32f746xx.h"
 1469              		.file 5 "Drivers/STM32F7xx_HAL_Driver/Inc/stm32f7xx_hal_gpio.h"
ARM GAS  C:\Users\billa\AppData\Local\Temp\ccRGzkBf.s 			page 39

